2283215	2019	P	F	L1	ELEMENT BY WESTIN	04/22/2019	10/24/2019	11/01/2019	FN	      	1621517	1621517
2302447	2019	P	I	L2	CLINE TOOL	05/02/2019	05/02/2019	05/10/2019	PT	      	284255	284255
0915475	2019	P	I	S1	MOSSY NISSAN	04/11/2019	04/10/2019	04/19/2019	PC	      	5526268	5526268
2169668	2019	P	I	L1	ALPINE ENGINEERING & CONSTRUCTION	04/30/2019	04/26/2019	05/10/2019	PC	      	51804	8774
0478196	2019	P	I	L2	THERMO-MOLD, INC.	04/30/2019	04/29/2019	05/10/2019	PC	      	299858	177827
0551735	2019	P	I	L2	CORPORATE THERMOGRAPHERS INC	05/01/2019	04/30/2019	05/10/2019	PC	      	87750	10000
1037194	2019	P	I	L2	NAVIGATOR NORTH AMERICA INC	05/14/2019	05/07/2019	05/10/2019	PC	      	3193582	2745171
2301520	2019	P	I	L1	GOLDEN DONUTS	05/14/2019	05/09/2019	05/10/2019	IC	      	19085	9000
2026314	2019	P	I	L1	SUGARLAND DELI PROVISIONS	05/14/2019	05/13/2019	05/17/2019	PC	      	85827	77719
2146508	2019	P	I	L1	ICE CREAM PARTY,LLC	05/15/2019	05/14/2019	05/17/2019	PC	      	61582	49530
2287484	2019	P	I	L2	FAR EAST AMERICAN INC	05/16/2019	05/15/2019	05/17/2019	PT	      	1350302	1350302
2058753	2019	P	I	L2	JIM RAY COMPANY INC	05/17/2019	05/16/2019	08/02/2019	PC	      	160701	16472
2049690	2019	P	I	L2	LONE STAR FASTENERS LP	05/23/2019	05/22/2019	05/31/2019	IC	      	2135200	2048200
2059030	2019	P	I	L1	BELLICUM PHARMACEUTICALS	05/28/2019	05/24/2019	05/31/2019	PT	      	6848616	6848616
2136470	2019	P	I	L2	NATIONAL OIL VARCO-DHT	05/29/2019	05/29/2019	06/14/2019	PC	      	27958660	27958660
2144354	2019	P	I	L1	BRIAN LEE	06/04/2019	05/29/2019	05/31/2019	PC	      	9380	490
2026479	2019	P	I	L2	BROCK SERVICES LTD	06/03/2019	05/30/2019	05/31/2019	PT	      	896241	896241
0938883	2019	P	I	L2	BROCK SERVICES LTD	06/03/2019	05/30/2019	05/31/2019	PT	      	201481	201481
2095478	2019	P	I	L2	BROCK SERVICES LTD	06/03/2019	05/30/2019	05/31/2019	PT	      	253176	253176
2125460	2019	P	I	L2	BROCK SERVICES LTD	06/03/2019	05/30/2019	05/31/2019	PT	      	2523606	2523606
0040841	2019	P	I	L2	COCA-COLA SOUTHWEST BEVERAGES	06/03/2019	05/30/2019	06/14/2019	PT	      	24370460	24370460
0050696	2019	P	I	L2	COCA-COLA SOUTHWEST BEVERAGES	06/03/2019	05/30/2019	06/21/2019	PC	      	20816810	20816810
0283144	2019	P	I	L2	WESTERN CONTAINER CORP	06/03/2019	05/30/2019	06/14/2019	PC	      	19013280	19013280
0042170	2019	P	I	L2	LAMONS METAL GASKET CO	06/07/2019	06/03/2019	07/12/2019	PC	      	30843117	30540791
2173507	2019	P	I	L2	THE DOW CHEMICAL COMPANY	06/07/2019	06/03/2019	06/28/2019	PC	      	144041	144041
2247566	2019	P	I	L2	HEWLETT PACKARD ENTERPRISE COMPANY	06/04/2019	06/03/2019	06/07/2019	PC	      	1636180	923157
2276245	2019	P	I	L2	CHEVRON PRODUCTS COMPANY	06/11/2019	06/04/2019	06/07/2019	PC	      	420962	977785
2312590	2019	P	I	L2	LYONDELL CHEMICAL	06/05/2019	06/04/2019	06/21/2019	PT	      	2300000	2300000
2276146	2019	P	I	L2	FOXCONN OPTICAL INTERCONNECT TECHNOLOGIES INC	06/05/2019	06/05/2019	06/07/2019	PC	      	3889699	3241416
2293834	2019	P	I	L2	FOXCONN OPTICAL INTERCONNECT TECHNOLOGIES INC	06/05/2019	06/05/2019	06/07/2019	PC	      	190980	159150
0264903	2019	P	I	L2	WALSH & ALBERT COMPANY LTD	06/07/2019	06/06/2019	07/12/2019	PT	      	345433	345433
2048730	2019	P	I	L2	EXTERRAN INC	06/17/2019	06/06/2019	06/21/2019	PC	      	77440050	77440050
2276619	2019	P	I	L1	OUISIE'S TABLE	06/07/2019	06/07/2019	06/14/2019	PC	      	165811	54835
2008127	2019	P	I	L2	NATIONAL OILWELL VARCO	06/14/2019	06/07/2019	06/14/2019	PC	      	5062510	5062510
2241356	2019	P	I	L2	PANOLIN AMERICA	06/10/2019	06/07/2019	06/14/2019	PC	      	522564	352000
2276005	2019	P	I	L2	FORZA RETAIL	06/07/2019	06/07/2019	06/14/2019	PC	      	382033	72686
0619112	2019	P	I	S1	TRUCK SALVAGE COMPANY INC	06/12/2019	06/11/2019	06/14/2019	PC	      	321083	32108
2309621	2019	P	I	L2	FLACK STEEL LLC	06/12/2019	06/11/2019	06/21/2019	PT	      	200003	200003
2269721	2019	P	I	L2	FLACK STEEL LLC	06/12/2019	06/11/2019	06/14/2019	PT	      	3691543	3691543
2307571	2019	P	I	L2	EOG RESOURCES INC	06/12/2019	06/12/2019	06/28/2019	PC	      	815985	737336
1007136	2019	P	I	L2	GLOBAL TEL LINK	06/12/2019	06/12/2019	06/14/2019	PC	      	9154224	7215122
2276635	2019	P	I	L1	MEI BROWN & ROOT INDUSTRIAL SERVICES	06/13/2019	06/12/2019	06/14/2019	IC	      	619784	29744
2270776	2019	P	I	G1	TRINITY LEASING LLC	06/12/2019	06/12/2019	06/14/2019	PC	      	130420	24160
2270775	2019	P	I	G1	TRINITY LEASING LLC	06/13/2019	06/12/2019	06/14/2019	PC	      	20430	7390
0243246	2019	P	F	L1	SAMS WHOLESALE CLUB 8245	07/30/2019	07/30/2019	08/02/2019	FC	      	7126060	6897587
0252244	2019	P	F	L1	WAL-MART SUPERCENTER #768	07/30/2019	07/30/2019	08/02/2019	FC	      	7090539	6892595
0916340	2019	P	F	L1	SAMS WHOLESALE CLUB #4712	07/30/2019	07/30/2019	08/02/2019	FC	      	6587119	6365277
2050984	2019	P	F	L1	WAL-MART SUPERCENTER #4298	07/30/2019	07/30/2019	08/02/2019	FC	      	6385542	6190013
0964741	2019	P	F	L1	WALMART SUPERCENTER US03500	07/30/2019	07/30/2019	08/02/2019	FC	      	6293552	6113472
2120467	2019	P	F	L1	WAL-MART SUPERCENTER #4526	07/30/2019	07/30/2019	08/02/2019	FC	      	5948960	5828863
0579779	2019	P	F	L1	WALMART SUPERCENTER #1837	07/30/2019	07/30/2019	08/02/2019	FC	      	5805985	5634532
2147893	2019	P	F	L1	WAL-MART SUPERCENTER US03640G	07/30/2019	07/30/2019	08/02/2019	FC	      	5715633	5554800
0500086	2019	P	I	L1	HOUSTON DISTRIBUTING CO NC	07/01/2019		07/03/2019	WD	842   	4173855	4173855
0188683	2019	P	I	L1	HOUSTON DISTRIBUTING CO INC	07/01/2019		06/28/2019	WD	842   	14264517	14264517
0179087	2019	P	I	L1	COMMUNITY RESOURCES CREDIT UNION	07/01/2019		06/28/2019	WD	842   	506466	506466
0413284	2019	P	F	L1	NORTH AMERICAN METALS INC	07/01/2019	07/01/2019	07/03/2019	FN	50821 	14224128	14224128
2269641	2019	P	F	L1	COOPER PORTS AMERICA LLC	07/01/2019	07/01/2019	07/03/2019	FC	50821 	6556307	6484187
0989264	2019	P	F	L1	CHAMPION PROCESS INC	07/01/2019	07/01/2019	07/03/2019	FN	50821 	3951612	3951612
0100049	2019	P	F	L1	MARMON/KEYSTONE CORP.	07/01/2019	07/01/2019	07/03/2019	DN	50821 	2588103	2588103
0624545	2019	P	F	L1	COASTAL CARGO TEXAS INC #145	07/01/2019	07/01/2019	07/03/2019	FC	50821 	1869858	1849289
2217148	2019	P	F	L1	NORTH AMERICAN METALS INC	07/01/2019	07/01/2019	07/03/2019	FN	50821 	1570761	1570761
2281770	2019	P	F	L1	PANALPINA	07/01/2019	07/01/2019	07/03/2019	FC	481   	4777817	4316000
0696300	2019	P	F	L1	PAPPAS BROTHERS STEAK HSE	07/01/2019	07/01/2019	07/03/2019	FC	51    	4678425	4327295
2198720	2019	P	I	L1	ENSCO INTERNATIONAL INCORPORATED	07/01/2019		06/21/2019	WD	4064  	3908303	3908303
0045485	2019	P	I	L1	J C PENNEY 870-6	07/01/2019	07/12/2019	07/19/2019	IC	6005  	4745404	4451910
2012252	2019	P	I	L1	J C PENNEY #2863	07/01/2019	07/12/2019	07/19/2019	IC	6005  	4147487	3887242
2093376	2019	P	I	L1	J C PENNEY #2995	07/01/2019	07/12/2019	07/19/2019	IC	6005  	3809232	3583353
2008146	2019	P	I	L1	J C PENNEY CO 2881-1	07/01/2019	07/12/2019	07/19/2019	IC	6005  	3669286	3448345
2030213	2019	P	I	L1	J C PENNEY #2885	07/01/2019	07/12/2019	07/19/2019	IC	6005  	3404076	3188798
2008126	2019	P	I	L1	J C PENNEY 2844	07/01/2019	07/12/2019	07/19/2019	IC	6005  	3274401	3068669
0474145	2019	P	I	L1	MCDONOUGH CONSTRUCTION RENTALS, INC	07/16/2019		07/19/2019	NN	      	3727389	3727389
2079232	2019	P	I	L1	LIUGONG CONSTRUCTION	07/01/2019		07/12/2019	WD	8013  	14218	14218
0113586	2019	P	F	L1	GROVES INDUSTRIAL SUPPLY CORPORATION	07/01/2019	07/15/2019	07/19/2019	FN	8013  	10247492	10247492
0812806	2019	P	I	L1	HANMI FINANCIAL CORP	07/01/2019		06/28/2019	WD	8013  	93844	93844
0041431	2019	P	I	L1	VINSON & ELKINS LLP	07/10/2019	06/28/2019	07/03/2019	PC	6021  	3314633	2900000
2204764	2019	P	F	L1	SILVER EAGLE DISTRIBUTORS	07/01/2019	07/01/2019	07/03/2019	DC	274   	15856182	15611679
0391220	2019	P	F	L1	SILVER EAGLE DISTIBUTOR INC	07/01/2019	07/01/2019	07/03/2019	FC	274   	13186350	12410498
0504471	2019	P	I	L1	COWBOY TRUCKING INC	07/01/2019		06/28/2019	WD	274   	205521	205521
0990758	2019	P	I	L1	ABERLE PLUMBING LLC	07/01/2019	07/01/2019	07/03/2019	IN	274   	107062	107062
0930777	2019	P	I	L1	PARK PLAZA PEDIATRICS MARYAM TAGHADASI	07/01/2019		06/28/2019	WD	274   	88162	88162
2151289	2019	P	I	L1	RANCHERO KING BUFFET	07/01/2019	07/01/2019	07/03/2019	IN	274   	69547	69547
0410067	2019	P	I	L1	ICS MANAGEMENT CORP	07/01/2019		06/28/2019	WD	274   	19663	19663
0477145	2019	P	I	L1	KEYSTONE PROPERTY TAX SERVICES	07/01/2019		06/28/2019	WD	274   	4121	4121
2045431	2019	P	I	L1	ATTORNEY RESOURCE / HOUSTON	07/01/2019		06/28/2019	WD	274   	2284	2284
0738596	2019	P	I	L1	CBSL TRANSPORTATION SERVICE INC	07/01/2019		07/19/2019	NN	336   	6502067	6502067
2212622	2019	P	F	L1	BOLD PRODUCTION SERVICES LLC	07/01/2019	07/01/2019	07/03/2019	FN	4064  	3126073	3126073
2030251	2019	P	I	L1	TRULUCK'S SEAFOOD STEAK AND CRAB HOUSE	07/01/2019		07/03/2019	WD	4064  	60953	60953
2156612	2019	P	I	L1	ARIES OPERATING LP	07/01/2019	07/01/2019	07/03/2019	IC	4064  	10380	9181
2095318	2019	P	I	L1	DEACERO USA	07/01/2019		06/21/2019	WD	4064  	14779864	14779864
0405693	2019	P	I	L1	HOUSTON CENTER VALVE & FITTING LP	07/01/2019		06/21/2019	WD	4064  	2702261	2702261
0344697	2019	P	I	L1	QUIKSERV CORP	07/01/2019		07/03/2019	WD	4064  	2666161	2666161
0071169	2019	P	I	L1	CYCLONE STEEL SVCS LLC	07/01/2019		07/19/2019	NN	4064  	2335447	2335447
0582134	2019	P	I	L1	TRULUCK STEAK & STONE CRAB RESTARANT REPORTING PLU	07/01/2019		07/03/2019	WD	4064  	276820	276820
2269902	2019	P	I	L1	BS LESSEE LP	07/01/2019	06/28/2019	07/03/2019	IC	231   	2946249	2901208
2244502	2019	P	F	L1	CONTINENTAL PRODUCTION SERVICES	07/01/2019		07/03/2019	WD	491   	10653	10653
0082630	2019	P	F	L1	I W MARKS JEWELERS LP	07/01/2019	07/01/2019	07/03/2019	FN	491   	5273345	5273345
0776022	2019	P	I	L1	WELLS FARGO BANK #192502 PROP TAX DEPT 303	07/01/2019		07/03/2019	WD	845   	6536895	6536895
0800580	2019	P	F	L1	WELLS FARGO 100785	07/01/2019	08/15/2019	08/23/2019	FC	845   	906368	794043
2005967	2019	P	F	L1	WELLS FARGO & COMPANY	07/01/2019	07/17/2019	07/19/2019	FC	845   	225256	212943
2237863	2019	P	F	L1	HATFIELD AND COMPANY	07/01/2019	06/27/2019	07/03/2019	FN	      	2386956	2386956
2192721	2019	P	I	L1	TA INDUSTRIES INC DBA TRU AIRE	07/01/2019	07/01/2019	07/03/2019	IN	3603  	6091113	6091113
2269083	2019	P	I	L1	CITADEL CASING SOLUTIONS LLC	07/01/2019	07/01/2019	07/03/2019	IC	3603  	1564591	1519027
0749223	2019	P	I	L1	SAP AMERICA INC	07/01/2019	07/01/2019	07/03/2019	IN	3603  	1043201	1043201
0455997	2019	P	I	L1	VITAS HEALTHCARE CORPORATION	07/01/2019	07/01/2019	07/03/2019	IN	3603  	208930	208930
0711915	2019	P	I	L1	AZTEC PARTY & TENT RENTAL	07/02/2019	07/02/2019	07/19/2019	NN	7042  	4310415	4310415
0186047	2019	P	I	L1	CENTURY AIR CONDITIONING SUPPLY INC	07/01/2019		07/03/2019	WD	6203  	11240128	11240128
0329167	2019	P	I	L1	CENTURY AIR CONDITIONING SUPPLY	07/01/2019		07/03/2019	WD	6203  	2672994	2672994
0744885	2019	P	I	L1	CENTURY AIR CONDITIONING SUPPLY LP	07/01/2019		07/03/2019	WD	6203  	1213747	1213747
0462450	2019	P	I	L1	CENTURY AIR CONDITIONING SUPPLY	07/01/2019		07/19/2019	NN	6203  	1055786	1055786
0695319	2019	P	I	L1	CENTURY AIR CONDITIONING SUPPLY	07/01/2019		07/03/2019	WD	6203  	796643	796643
0911507	2019	P	I	L1	CENTURY AIR CONDITIONING SUPPLY	07/01/2019		07/03/2019	WD	6203  	788425	788425
0060193	2019	P	I	L1	CENTURY AIR CONDITIONING SUPPLY	07/01/2019		07/03/2019	WD	6203  	681299	681299
2038422	2019	P	I	L1	CENTURY AIR CONDITIONING SUPPLY LP	07/01/2019		07/03/2019	WD	6203  	591459	591459
0441820	2019	P	I	L1	NORTHWEST AIRPORT MANAGEMENT LP	07/01/2019		07/03/2019	WD	6203  	249464	249464
2091583	2019	P	I	L1	NEUTEX	07/01/2019		07/19/2019	NN	      	2023739	2023739
2053652	2019	P	I	L1	AMERICAN BLOCK MANUFACTURING CO INC	07/02/2019		07/19/2019	NN	121   	5897564	5897564
0705620	2019	P	I	L1	SNAPPY MART #3	07/02/2019		07/19/2019	NN	121   	85657	85657
2228824	2019	P	I	L1	HIGH FIVE STORE	07/02/2019		07/19/2019	NN	121   	82750	82750
0756807	2019	P	I	L1	ADVANCE AUTO PARTS #103628	07/01/2019		07/19/2019	NN	3196  	1850927	1850927
1031492	2019	P	I	L1	MEDISTAR CORP	07/02/2019	07/02/2019	07/03/2019	IC	51    	213027	44567
0675712	2019	P	I	L1	HALFF ASSOCIATES INC	07/02/2019		07/03/2019	WD	51    	165927	165927
2020631	2019	P	I	L1	JACOBS FIELD SERVICES NORTH AMERICA	07/02/2019	07/02/2019	07/03/2019	IC	51    	135842	129085
2283292	2019	P	I	L1	JACOBS ENGINEERING GROUP INC	07/02/2019	07/02/2019	07/03/2019	IN	51    	111282	111282
2252975	2019	P	I	L1	EAGLETON ENGINEERING LLC	07/02/2019	07/02/2019	07/03/2019	IN	51    	108431	108431
2288093	2019	P	I	L1	SINOPEC TECH HOUSTON LLC	07/02/2019	07/02/2019	07/03/2019	IC	51    	57730	54577
2150258	2019	P	I	L1	LIN INDRIO LLC	07/02/2019		07/03/2019	WD	51    	34602	34602
2054834	2019	P	I	L1	FAST GROUP HOUSTON INC	07/02/2019	07/02/2019	07/03/2019	IC	51    	15661	14094
0479645	2019	P	I	L1	SOUTH HOUSTON CONCRETE PRODUCTS INC	07/02/2019		07/03/2019	WD	51    	15100	15100
0452662	2019	P	I	L1	NATIONAL STRAND PRODUCTS INC	07/02/2019		07/03/2019	WD	51    	9421191	9421191
0372768	2019	P	F	L1	WOOD GROUP MUSTANG	07/02/2019	07/02/2019	07/03/2019	FN	51    	8698709	8698709
2173689	2019	P	F	L1	PAPPAS BROS GRILL	07/02/2019	07/02/2019	07/03/2019	FC	51    	2620176	2560293
0380636	2019	P	F	L1	LITTLE PAPPAS SEAFOOD KITCHEN	07/02/2019	07/02/2019	07/03/2019	DC	51    	135628	99699
0430993	2019	P	I	L1	GUCCI AMERICA INC	07/01/2019		06/14/2019	WD	477   	4517726	4517726
2144397	2019	P	I	L1	GUCCI AMERICA INC	07/01/2019		06/14/2019	WD	477   	1211872	1211872
2242654	2019	P	I	L1	GUCCI NEIMAN SHOP-N-SHOP	07/01/2019		06/14/2019	WD	477   	575920	575920
0377020	2019	P	I	L1	NEW WORLD VAN LINES OF TEXAS, INC	07/01/2019		06/21/2019	WD	477   	81327	81327
0486404	2019	P	I	L1	HOUSTON AVOCADO CO INC	07/01/2019		07/19/2019	NN	3127  	1585940	1585940
0466414	2019	P	I	L1	SOWESCO I LLC	07/01/2019	06/28/2019	07/03/2019	IC	233   	2519328	2517731
0053248	2019	P	I	L1	BIG Z LUMBER CO. INC	07/01/2019	06/28/2019	07/26/2019	IC	233   	483625	477643
2100588	2019	P	I	L1	LABORDE PRODUCTS INC	07/01/2019		07/19/2019	NN	      	1467318	1467318
2306181	2019	P	I	L1	MAXIM CRANE WORKS LP	07/01/2019		07/19/2019	NN	49    	1453258	1453258
2202273	2019	P	I	L1	CONGLOBAL INDUSTRIES LC	07/01/2019		08/02/2019	WD	4066  	1383123	1383123
0966924	2019	P	I	L1	LKQ SOUTH TEXAS	07/01/2019		07/03/2019	WD	3222  	213804	213804
2083642	2019	P	I	L1	KEYSTONE AUTOMOTIVE OPERATIONS	07/01/2019		07/03/2019	WD	3222  	102787	102787
2078711	2019	P	I	L1	LKQ HEAVY TRUCK - TEXAS BEST DIESEL LP	07/01/2019		07/03/2019	WD	3222  		39831
2173492	2019	P	I	L1	LKQ BEST AUTOMOTIVE INC	07/01/2019		07/19/2019	NN	3222  	4351	4351
2200469	2019	P	I	L1	LKQ BEST AUTOMOTIVE INC	07/01/2019		07/03/2019	WD	3222  	529	529
2080634	2019	P	F	L1	KEYSTONE AUTOMOTIVE	07/01/2019	07/11/2019	07/19/2019	FC	3222  	7677576	7606698
2058127	2019	P	I	L1	LQK BEST AUTOMOTIVE CORP	07/01/2019		07/03/2019	WD	3222  	1269836	1269836
2142925	2019	P	F	L1	SAFETY VISION	07/10/2019		07/19/2019	FC	7094  	14137	8324
2223749	2019	P	F	L1	PETROQUIP ENERGY SERVICES	07/10/2019	07/10/2019	07/19/2019	FN	7094  	7967	7967
1044007	2019	P	F	L1	TEAM INDUSTRIAL SERVICES, INC	07/08/2019	07/08/2019	07/19/2019	FN	7094  	6316314	6316314
0457166	2019	P	F	L1	DATAVOX INC	07/08/2019	07/08/2019	07/19/2019	FC	7094  	1704291	1350000
0002398	2019	P	F	L1	TEAM INDUSTRIAL SERVICES INC	07/08/2019	07/08/2019	07/19/2019	FC	7094  	1678562	1602443
2151887	2019	P	F	L1	FURMANITE AMERICA INC	07/08/2019	07/08/2019	07/19/2019	FC	7094  	1652408	942070
2062741	2019	P	F	L1	TEAM INDUSTRIAL SERVICES INC	07/10/2019	07/10/2019	07/19/2019	FN	7094  	498391	498391
2222354	2019	P	F	L1	TEAM INDUSTRIAL SERVICES	07/08/2019	07/08/2019	07/19/2019	FN	7094  	27089	27089
2045363	2019	P	I	L1	WELLINGTON DEV	07/01/2019		07/03/2019	WD	7094  	2509	2509
2127927	2019	P	I	L1	JOE V'S SMART SHOP #3	07/12/2019	07/12/2019	07/19/2019	IC	650   	1448611	1411729
2026749	2019	P	I	L1	HEB GROCERY #090	07/12/2019	07/12/2019	07/19/2019	IC	650   	1295348	1265455
0768488	2019	P	I	L1	HEB PANTRY #369	07/12/2019	07/12/2019	07/19/2019	IC	650   	1089317	1053212
0202025	2019	P	F	L1	AER SUPPLY LTD	07/01/2019	07/01/2019	07/03/2019	FC	      	1255084	1130953
0052131	2019	P	I	L1	WALGREEN CO #00553-S-PPT	07/01/2019	07/12/2019	07/19/2019	IC	6007  	1589874	1578331
0856531	2019	P	F	L1	WALGREEN CO #05416-S-PPT	07/01/2019	07/15/2019	07/19/2019	FN	6007  	818179	818179
0841506	2019	P	I	L1	BASSETT FURNITURE DIRECT	07/01/2019		06/21/2019	WD	3030  	1157467	1157467
2063902	2019	P	F	L1	NIKE RETAIL SERVICES INC	07/01/2019	07/09/2019	07/19/2019	FN	8041  	1686284	1686284
0735420	2019	P	F	L1	COLE HAAN #29	07/01/2019	07/09/2019	07/19/2019	FN	8041  	462137	462137
0837079	2019	P	I	L1	IMS LANDSCAPE SERVICE INC	07/01/2019	07/01/2019	07/03/2019	IC	      	1032710	734861
0503166	2019	P	I	L1	CTI TRANSPORTATION LLC	06/27/2019	06/27/2019	08/02/2019	ON	5046  	2023468	2023468
0902255	2019	P	I	L1	CTI TRANSPORTATION, LLC	06/27/2019	06/27/2019		ON	5046  	1787	1787
0935104	2019	P	F	L1	ACT PIPE & SUPPLY LTD	07/01/2019	07/01/2019	07/03/2019	DC	1000  	939880	894924
2292666	2019	P	I	L1	MAS HILL PROPERTIES	07/08/2019	07/08/2019	07/12/2019	IC	      	899920	60888
0703377	2019	P	I	L1	SOUTHEASTERN FREIGHT LINES	07/01/2019		07/19/2019	WD	32168 	869991	869991
2200042	2019	P	I	L1	SOUTHEASTERN FREIGHT LINES	07/01/2019		07/19/2019	WD	32168 	868915	868915
0489582	2019	P	I	L1	RUSH TRUCK CENTER, HOUSTON	07/01/2019		06/28/2019	WD	4056  	1578563	1578563
2220369	2019	P	I	L1	VISIONWORKS INC 114	07/01/2019		06/28/2019	WD	4056  	120414	120414
0938195	2019	P	I	L1	PORTS AMERICA TEXAS INC	07/01/2019		07/19/2019	NN	3603  	7850	7850
2271042	2019	P	I	L1	TEXAS TEMPERED GLASS	07/01/2019		07/19/2019	NN	3603  	7800	7800
2226545	2019	P	I	L1	TEXAS TEMPERED GLASS INC	07/01/2019		07/19/2019	NN	3603  	1933364	1933364
2078759	2019	P	I	L1	TERMINAL LINK TEXAS	07/01/2019		07/19/2019	NN	3603  	1441136	1441136
0387545	2019	P	I	L1	PGW AUTO GLASS LLC	07/01/2019		07/19/2019	NN	62    	814896	814896
0955754	2019	P	F	L1	MUSEUM DISTRICT AESTHETIC SURGERY CENTER	07/01/2019	07/01/2019	07/03/2019	FN	1791  	790971	790971
2230390	2019	P	I	L1	RAE SECURITY SOUTHWEST LLC	07/01/2019		07/19/2019	NN	      	754762	754762
2274060	2019	P	I	L1	BIOCARE INC	07/01/2019	07/29/2019	08/02/2019	PC	      	734488	26083
2093685	2019	P	F	L1	MARDEL INC	07/01/2019	08/08/2019	08/09/2019	DC	114   	14420	5448
0781835	2019	P	I	L1	HOBBY LOBBY STORES INC	07/01/2019		07/03/2019	WD	114   	12812	12812
2277792	2019	P	F	L1	HOBBY LOBBY	07/01/2019	07/09/2019	07/19/2019	FN	114   	1005709	1005709
0868819	2019	P	F	L1	HOBBY LOBBY STORES INC #12	07/01/2019	07/09/2019	07/19/2019	FN	114   	985358	985358
0808488	2019	P	F	L1	HOBBY LOBBY #170	07/01/2019	07/09/2019	07/19/2019	FN	114   	898565	898565
0744556	2019	P	F	L1	HOBBY LOBBY #126	07/01/2019	07/09/2019	07/19/2019	FN	114   	877534	877534
0706802	2019	P	F	L1	HOBBY LOBBY #103	07/01/2019	07/09/2019	07/19/2019	FN	114   	836531	836531
0744558	2019	P	F	L1	HOBBY LOBBY #125	07/01/2019	07/09/2019	07/19/2019	FN	114   	834769	834769
0814766	2019	P	F	L1	HOBBY LOBBY #160	07/01/2019	07/09/2019	07/19/2019	FN	114   	829201	829201
0757564	2019	P	F	L1	HOBBY LOBBY #120	07/01/2019	07/02/2019	07/19/2019	FN	114   	821257	821257
0757565	2019	P	F	L1	HOBBY LOBBY #115	07/01/2019	07/09/2019	07/19/2019	FN	114   	800794	800794
0703750	2019	P	F	L1	HOBBY LOBBY # 91	07/01/2019	07/09/2019	07/19/2019	FN	114   	771369	771369
0706801	2019	P	F	L1	HOBBY LOBBY #93	07/01/2019	07/09/2019	07/19/2019	FN	114   	757848	757848
0706807	2019	P	F	L1	HOBBY LOBBY #110	07/01/2019	07/09/2019	07/19/2019	FN	114   	724086	724086
0706771	2019	P	F	L1	HOBBY LOBBY #99	07/01/2019	07/09/2019	07/19/2019	FN	114   	710252	710252
0010995	2019	P	I	L1	EXXONMOBIL-DIV 10 AVIATION SERVICES	07/01/2019		06/28/2019	WD	1121  	724234	724234
0988609	2019	P	I	L1	CONTAINER HAULERS OF TEXAS	07/01/2019		07/19/2019	NN	      	670522	670522
2283385	2019	P	F	L1	STAYBRIDGE SUITES GENERATION PARK	07/01/2019	07/15/2019	07/19/2019	FN	650   	638241	638241
0502295	2019	P	I	L1	PROMAXIMA MANUFACTURING, LTD	06/25/2019	06/25/2019	08/02/2019	ON	8073  	622999	622999
2298604	2019	P	I	L1	HEALTH SCRIPTS SPECIALTY PHARMACY	07/01/2019		07/19/2019	NN	      	604583	604583
2268812	2019	P	I	L1	CARDIAC CATH LAB OF BAYTOWN	07/01/2019		06/28/2019	WD	265   	796248	796248
2048681	2019	P	I	L1	ADVANCED CARDIOVASCULAR CENTER @ HOUSTON METHODIST	07/01/2019		06/28/2019	WD	265   	598231	598231
2115424	2019	P	I	L1	SPRING CREEK CATCH LAB	07/01/2019		06/28/2019	WD	265   	343731	343731
0501232	2019	P	I	L1	TEXAS UNITED SUPPLY CO	07/01/2019		06/21/2019	WD	3068  	523051	523051
2212515	2019	P	I	L1	US LIME CO INC	07/12/2019	07/12/2019	07/19/2019	IC	3068  	212392	191546
2247459	2019	P	I	L1	STEPAN COMPANY	06/21/2019	06/21/2019	08/02/2019	ON	3068  	23136	23136
2275986	2019	P	I	L1	STEPAN COMPANY	06/21/2019	06/21/2019	08/02/2019	ON	3068  	1162943	1162943
2075150	2019	P	I	L1	CORE LABORATORIES	07/01/2019		06/21/2019	WD	3068  	1128165	1128165
0068328	2019	P	I	L1	TEXAS BRINE COMPANY, LLC	07/01/2019		06/21/2019	WD	3068  	430172	430172
0833562	2019	P	I	L1	IPSCO TUBULARS INC	07/01/2019		07/19/2019	NN	3068  	429242	429242
0498519	2019	P	I	L1	G R BIRDWELL CONST., LP	07/01/2019		07/19/2019	NN	      	555899	555899
2030504	2019	P	F	L1	ERLING SALES AND SERVICE, LLC	07/01/2019	07/01/2019	07/03/2019	FC	      	525185	412658
2180937	2019	P	I	L1	FLUIDS MANAGEMENT LTD	07/01/2019		07/03/2019	WD	4059  	26636	26636
0637582	2019	P	I	L1	IMERYS TALC	07/01/2019		07/03/2019	WD	4059  	2238	2238
0323608	2019	P	I	L1	CORECIVIC	07/01/2019		07/03/2019	WD	4059  	1468813	1468813
2252801	2019	P	I	L1	ELITE RENT A CAR	07/01/2019	07/01/2019	07/03/2019	IC	5012  	672435	610340
0516061	2019	P	I	L1	LANE EQUIPMENT CO.	07/01/2019	07/01/2019	07/03/2019	IN	5012  	307567	307567
0642495	2019	P	I	L1	WORLDPAC INC FBS-WORLDPAC ACCTS PAYABLE	07/01/2019		07/19/2019	NN	3196  	1720	1720
2002314	2019	P	I	L1	ADVANCE AUTO PARTS #106836	07/01/2019		07/03/2019	WD	3196  	978001	978001
2126217	2019	P	F	L1	HEADWATERS CONSTRUCTION MATERIALS	07/01/2019	07/29/2019	08/02/2019	FN	3196  	976696	976696
0756805	2019	P	F	L1	CARQUEST PARTS CENTER	07/01/2019	07/29/2019	08/02/2019	FN	3196  	659336	659336
2018775	2019	P	F	L1	ADVANCE AUTO PARTS #106544	07/01/2019	07/15/2019	07/19/2019	FN	3196  	506773	506773
2015933	2019	P	F	L1	ADVANCE AUTO PARTS	07/01/2019	07/15/2019	07/19/2019	FN	3196  	489092	489092
0569526	2019	P	F	L1	SMITH/CARQUEST AUTO #142	07/01/2019	07/29/2019	08/02/2019	FN	3196  	477487	477487
2002258	2019	P	F	L1	ADVANCE AUTO PARTS	07/01/2019	07/15/2019	07/19/2019	FN	3196  	463991	463991
0886396	2019	P	F	L1	CARQUEST-WEBER AUTO PARTS	07/01/2019	07/29/2019	08/02/2019	FN	3196  	446119	446119
2052757	2019	P	F	L1	ADVANCED AUTO PARTS 108099	07/01/2019	07/15/2019	07/19/2019	FN	3196  	443085	443085
2066172	2019	P	F	L1	ADVANCE AUTO PARTS #108549	07/01/2019	07/15/2019	07/19/2019	FN	3196  	355669	355669
2063643	2019	P	F	L1	ADVANCE AUTO PARTS #8489	07/01/2019	07/15/2019	07/19/2019	FN	3196  	311976	311976
2071369	2019	P	F	L1	ADVANCE AUTO PARTS #8189	07/01/2019	07/15/2019	07/19/2019	FN	3196  	308616	308616
2075059	2019	P	F	L1	ADVANCE AUTO PARTS	07/01/2019	07/15/2019	07/19/2019	FN	3196  	298844	298844
2064360	2019	P	F	L1	ADVANCE AUTO PARTS # 108512	07/01/2019	07/15/2019	07/19/2019	FN	3196  	248742	248742
2224944	2019	P	I	L1	OREILLY AUTO ENTERPRISES LLC	07/11/2019		07/19/2019	WD	3238  	455433	455433
2094160	2019	P	I	L1	CITGO PETROLEUM CORPORATION	07/17/2019		07/19/2019	WD	      	453683	453683
2166355	2019	P	F	L1	DINOVO	07/01/2019	07/01/2019	07/03/2019	FN	      	444921	444921
2302946	2019	P	I	L1	GLOWZONE	07/01/2019		06/21/2019	WD	122   	426000	426000
2055709	2019	P	I	L1	CONNECTIVITY SOURCE	07/03/2019		07/03/2019	WD	491   	25188	25188
1055523	2019	P	I	L1	URBAN LIVING	07/03/2019		06/28/2019	WD	491   	16556	16556
1041195	2019	P	F	L1	PELICAN WORLDWIDE INC	07/03/2019	07/03/2019	07/19/2019	FC	491   	5347456	5130717
0677056	2019	P	F	L1	RANDALLS BEVERAGE CO 1057B	08/27/2019	08/27/2019	09/06/2019	FC	491   	334222	317511
0677092	2019	P	F	L1	RANDALLS BEVERAGE COMPANY RANDALLS #1061B	08/27/2019	08/27/2019	09/06/2019	FC	491   	312774	297135
2136539	2019	P	F	L1	RANDALL'S BEVERAGE CO INC #2961B	08/27/2019	08/27/2019	09/06/2019	FC	491   	275679	261895
2170314	2019	P	I	L1	FANZZ #66 BAYBROOK MALL	07/03/2019		06/28/2019	WD	491   	228884	228884
0677085	2019	P	F	L1	RANDALLS BEVERAGE COMPANY RANDALLS #4062B	08/27/2019	08/27/2019	09/06/2019	FC	491   	223610	212430
0676832	2019	P	F	L1	RANDALLS BEVERAGE COMPANY RANDALLS #1011B C/O CPTS	08/27/2019	08/27/2019	09/06/2019	FC	491   	223029	211878
0677012	2019	P	F	L1	RANDALLS BEVERAGE COMPANY RANDALLS #4033B	08/27/2019	08/27/2019	09/06/2019	FC	491   	221959	210861
0677087	2019	P	F	L1	RANDALLS BEVERAGE COMPANY RANDALLS #3064B	08/27/2019	08/27/2019	09/06/2019	FC	491   	213240	202578
0676838	2019	P	F	L1	RANDALLS BEVERAGE COMPANY INC #1012B	08/27/2019	08/27/2019	09/06/2019	FC	491   	202016	191915
0969196	2019	P	F	L1	RANDALLS BEVERAGE COMPANY RANDALLS #2671B	08/27/2019	08/27/2019	09/06/2019	FC	491   	193570	183892
0969198	2019	P	F	L1	RANDALLS BEVERAGE COMPANY RANDALLS #2672B	08/27/2019	08/27/2019	09/06/2019	FC	491   	110573	105044
2219498	2019	P	I	L1	BURTON CONSTRUCTION	07/03/2019		06/28/2019	WD	491   	16775	16775
0882998	2019	P	I	L1	A DISCOUNT MINI STORAGE	07/03/2019		06/28/2019	WD	491   	5411	5411
2058096	2019	P	I	L1	URBAN LIVING	07/03/2019		06/28/2019	WD	491   	2100	2100
0487449	2019	P	I	L1	COMPETITION ROOFING INC	07/01/2019	07/01/2019	07/03/2019	IC	      	405087	392597
2191536	2019	P	I	L1	PETER PIPER PIZZA #610	07/01/2019		07/03/2019	WD	139   	406708	406708
2150821	2019	P	I	L1	PETER PIPER PIZZA #607	07/01/2019		07/03/2019	WD	139   	399394	399394
0485781	2019	P	I	L1	TOTAL SITE INC	07/02/2019	06/28/2019	07/03/2019	IC	232   	320056	315214
2181111	2019	P	I	L1	AMGIS	07/02/2019	06/28/2019	07/03/2019	IC	232   	476177	475748
2250573	2019	P	I	L1	PEACHES CLEANERS	07/01/2019	07/01/2019	07/03/2019	IC	      	376359	164779
0476698	2019	P	I	L1	WALTON BARGE TERMINAL	07/01/2019		07/19/2019	NN	356   	374519	374519
2305142	2019	P	F	L1	ARRIVE AT RIVER OAKS	07/01/2019	07/02/2019	07/03/2019	FN	3197  	372290	372290
0481169	2019	P	I	L1	JOE SWARTZ ELECTRIC CO LTD	07/01/2019	07/01/2019	07/03/2019	IC	263   	358071	360913
1047324	2019	P	I	L1	KIDS WORLD LEARNING CENTER	07/01/2019	07/01/2019	07/03/2019	IC	      	354434	38604
0706441	2019	P	I	L1	SHAW'S JEWELRY LTD	07/01/2019	07/01/2019	07/03/2019	IN	373   	1604801	1604801
0188865	2019	P	I	L1	DELEGARD TOOL OF TEXAS INC	07/01/2019	07/01/2019	07/03/2019	IN	373   	1080146	1080146
0922729	2019	P	I	L1	HWY 290 TEXACO TRUCK STOP	07/01/2019	07/01/2019	07/03/2019	IN	373   	167045	167045
2304685	2019	P	I	L1	MR EXPRESS	07/01/2019	07/01/2019	08/23/2019	NN	373   	113166	113166
2203278	2019	P	I	L1	J & K FOOD MART	07/01/2019	07/01/2019	07/03/2019	IN	373   	53097	53097
0965860	2019	P	I	L1	TILE CO #2	07/01/2019	07/01/2019	07/03/2019	IN	373   	46021	46021
2168781	2019	P	I	L1	ANDERSON MARKKET	07/01/2019	07/01/2019	07/03/2019	IN	373   	28945	28945
0882563	2019	P	I	L1	SHOP N GO	07/01/2019	07/01/2019	07/03/2019	IN	373   	27143	27143
2004882	2019	P	I	L1	HARTSOOK STOP & SHOP	07/01/2019	07/01/2019	07/03/2019	IN	373   	26611	26611
2120076	2019	P	I	L1	THE BELL TOWER ON 34TH	07/01/2019		07/19/2019	NN	      	337235	337235
0507117	2019	P	I	L1	ARBOR CARE INC	07/01/2019		06/28/2019	WD	836   	334797	334797
0934640	2019	P	I	L1	EL PALENQUE	07/01/2019		06/28/2019	WD	836   	101776	101776
0105496	2019	P	I	L1	CLEMTEX INC	07/01/2019		06/28/2019	WD	836   	1676878	1676878
0497543	2019	P	I	L1	ARBOR CARE INC	07/01/2019		06/28/2019	WD	836   	263682	263682
2249387	2019	P	I	L1	BAYTOWN ENDOSCOPY CENTER	07/01/2019		06/28/2019	WD	836   	182914	182914
0597531	2019	P	I	L1	JACINTO MRI & DIAGNOSTIC CENTER	07/01/2019		06/28/2019	WD	836   	180400	180400
0399194	2019	P	I	L1	EL PALENQUE MEXICAN RESTAURANT & CANTINA, INC.	07/01/2019		06/28/2019	WD	836   	106666	106666
0754976	2019	P	I	L1	ASHTON WOODS HOMES	07/01/2019		06/28/2019	WD	836   	86486	86486
0468806	2019	P	I	L1	EL PALENQUE MEXICAN RESTAURANT & CANTINA INC	07/01/2019		06/28/2019	WD	836   	70278	70278
0483603	2019	P	I	L1	THE DETERING COMPANY	07/01/2019		06/28/2019	WD	481   	364925	364925
0715983	2019	P	I	L1	SUNBELT GROUP LP	07/01/2019		06/28/2019	WD	481   	73991	73991
0849937	2019	P	F	L1	FLAIR BUILDERS	07/01/2019	07/01/2019	07/03/2019	FC	481   	48323	23337
2155267	2019	P	F	L1	FLAIR BUILDER	07/01/2019	07/01/2019	07/03/2019	DC	481   	33231	22114
0501621	2019	P	I	L1	FORONI METALS OF TEXAS INC	07/01/2019		06/28/2019	WD	481   	31490	31490
2200480	2019	P	F	L1	TRUSTMARK NATIONAL BANK	07/01/2019	07/01/2019	07/03/2019	DC	481   	24718	21112
0483730	2019	P	I	L1	RILEY EQUIPMENT INC	07/01/2019			WD	481   	11827	11827
0482445	2019	P	F	L1	CECO	07/01/2019	07/01/2019	07/03/2019	DC	481   	518	364
0047081	2019	P	F	L1	WOODCO USA	07/01/2019	07/01/2019	07/03/2019	FC	481   	2830042	2688540
0797954	2019	P	F	L1	VICTORY PACKAGING LP	07/01/2019	07/01/2019	07/03/2019	FC	481   	2823958	2359000
2112996	2019	P	F	L1	SOUTH TEXAS BRICK & STONE	07/01/2019	07/01/2019	07/03/2019	FC	481   	1302413	1295200
2173700	2019	P	F	L1	TRUSTMARK NATIONAL BANK	07/01/2019	07/01/2019	07/03/2019	FC	481   	241346	238691
2042186	2019	P	I	L1	TERRA MANAGEMENT SERVICES	07/01/2019		06/28/2019	WD	481   	222908	222908
0076683	2019	P	F	L1	FARMERS MARKETING ASSOC OF HOUSTON TEXAS INC	07/01/2019	07/01/2019	07/03/2019	FC	481   	183391	181373
0407224	2019	P	F	L1	LECOLIFT INC	07/01/2019	07/01/2019	07/03/2019	DC	481   	155707	127837
2234996	2019	P	F	L1	BIOCURE	07/01/2019	07/01/2019	07/03/2019	FC	481   	137004	39004
2036943	2019	P	F	L1	TRUSTMARK NATIONAL BANK HWY 290 BRANCH	07/01/2019	07/01/2019	07/03/2019	FC	481   	118346	117044
0263070	2019	P	I	L1	RIVER OAKS RUG CLEANERS	07/01/2019		06/14/2019	WD	481   	112401	112401
2036922	2019	P	F	L1	TRUSTMARK NATIONAL BANK	07/01/2019	07/01/2019	07/03/2019	FC	481   	68691	65839
2048284	2019	P	F	L1	TRUSTMARK NATIONAL BANK	07/01/2019	07/01/2019	07/03/2019	DC	481   	60394	54357
2023854	2019	P	F	L1	TRUSTMARK NATIONAL BANK	07/01/2019	07/01/2019	07/03/2019	DC	481   	29959	27277
1010068	2019	P	F	L1	TRUSTMARK NATIONAL BANK	07/01/2019	07/01/2019	07/03/2019	DC	481   	27266	25321
2021330	2019	P	I	L1	FLAIR BUILDERS LLC	07/01/2019		06/28/2019	WD	481   	25711	25711
2159939	2019	P	I	L1	SPARROWHAWK LLC	07/01/2019		06/14/2019	WD	481   	19968	19968
0866857	2019	P	I	L1	TEXFOR INC	07/01/2019		06/28/2019	WD	481   	15882	15882
0737139	2019	P	I	L1	FORONI METALS OF TEXAS INC	07/01/2019		06/28/2019	WD	481   	9793	9793
0828714	2019	P	I	L1	A 1 PUBLIC SCALES	07/01/2019		06/28/2019	WD	481   	2800	2800
2151513	2019	P	I	L1	MCKINNEY CONSTRUCTION	07/01/2019		07/19/2019	NN	      	496637	496637
2271185	2019	P	I	L1	FLO PARIS	07/01/2019		07/19/2019	NN	      	148961	148961
1050838	2019	P	I	L1	GROWING SCHOLARS MONTESSOR SCHOOL LLC	07/01/2019	07/01/2019	07/03/2019	IC	465   	322107	20054
2220713	2019	P	I	L1	SMART FINANCIAL CREDIT UNION	07/01/2019		06/28/2019	WD	3088  	995840	995840
0754183	2019	P	I	L1	SMART FINANCIAL CREDIT UNION	07/01/2019		06/28/2019	WD	3088  	301202	301202
0538645	2019	P	I	L1	SMART FINANCIAL CREDIT UNION	07/01/2019		06/28/2019	WD	3088  	252284	252284
0875124	2019	P	I	L1	SMART FINANCIAL CREDIT UNION	07/01/2019		06/28/2019	WD	3088  	237082	237082
0633490	2019	P	I	L1	SMART FINANCIAL CREDIT UNION	07/01/2019		06/28/2019	WD	3088  	211736	211736
0199429	2019	P	I	L1	JOHNSON DEVELOPMENT CORP	07/01/2019		07/19/2019	NN	3088  	126429	126429
0048070	2019	P	I	L1	SMART FINANCIAL CREDIT UNION	07/01/2019		06/28/2019	WD	3088  	126085	126085
2017619	2019	P	I	L1	EXTENDED STAY AMERICA #9826	07/01/2019		07/19/2019	NN	211   	30140	30140
2110970	2019	P	I	L1	EXTENDED STAY AMERICA #9713	07/01/2019		07/19/2019	NN	211   	447615	447615
2110963	2019	P	I	L1	EXTENDED STAY AMERICA #06057	07/01/2019		07/19/2019	NN	211   	408226	408226
2110959	2019	P	I	L1	EXTENDED STAY AMERICA #6055	07/01/2019		07/19/2019	NN	211   	352524	352524
2185419	2019	P	I	L1	GRANDWAY PLASTIC LLC	07/01/2019		07/19/2019	NN	373   	12222	12222
2154693	2019	P	I	L1	KENNY LO	07/01/2019		07/19/2019	NN	373   	7970	7970
0366609	2019	P	I	L1	SULLAIR OF HOUSTON	07/01/2019		07/19/2019	NN	373   	1713862	1713862
2168780	2019	P	I	L1	SHOP N GO	07/01/2019		07/19/2019	NN	373   	54903	54903
0964394	2019	P	I	L1	KSNS CORP INC QWIK STOP #2	07/01/2019		07/19/2019	NN	373   	28296	28296
2264306	2019	P	I	L1	TILE ZONE	07/01/2019		07/19/2019	NN	373   	8451	8451
2064123	2019	P	I	L1	SLL TRANSPORTATION LLC	07/01/2019	07/01/2019	07/03/2019	IC	120   	574524	47045
2230657	2019	P	I	L1	HONEYWELL SERVICE CENTER	07/01/2019	07/01/2019	08/02/2019	IC	120   	20179	6453
0937189	2019	P	I	L1	CURRENT OWNER	07/01/2019	07/01/2019	07/03/2019	IC	959   	541765	507939
0162503	2019	P	I	L1	BLUE NORTHERN AIR CONDITIONING INC	07/01/2019	07/01/2019	07/03/2019	IN	959   	21059	21059
2171071	2019	P	I	L1	KIDZ BIZ	07/01/2019	07/01/2019	07/03/2019	IC	      	280910	21700
2111772	2019	P	I	L1	ACE SERVICES INC	07/02/2019		07/19/2019	NN	      	278372	278372
2023880	2019	P	I	L1	BROOKDALE CHAMPION OAKS	07/16/2019	07/12/2019	07/19/2019	IN	650   	10711	10711
0802216	2019	P	I	L1	BROCKDALE GALLERIA	07/16/2019	07/12/2019	07/19/2019	IN	650   	7192	7192
2097531	2019	P	I	L1	HEB BEVERAGE COMPANY LLC	07/16/2019	07/16/2019	07/19/2019	IC	650   	679379	658997
0913187	2019	P	I	L1	HEB BEVERAGE CO LLC #491	07/16/2019	07/16/2019	07/19/2019	IC	650   	485154	470599
2236542	2019	P	I	L1	HEB BEVERAGE CO LLC	07/16/2019	07/16/2019	07/19/2019	IC	650   	414245	401817
2135432	2019	P	I	L1	HEB BEVERAGE CO LLC	07/16/2019	07/16/2019	07/19/2019	IC	650   	385052	373500
2193083	2019	P	I	L1	HEB GROCERY	07/16/2019	07/16/2019	07/19/2019	IC	650   	336549	326452
2283462	2019	P	I	L1	HEB BEVERAGE COMPANY	07/16/2019	07/16/2019	07/19/2019	IC	650   	331579	321631
2236537	2019	P	I	L1	HEB BEVERAGE CO LLC	07/16/2019	07/16/2019	07/19/2019	IC	650   	328530	318674
2097532	2019	P	I	L1	HEB BEVERAGE COMPANY LLC	07/16/2019	07/16/2019	07/19/2019	IC	650   	328302	318452
2274188	2019	P	I	L1	HEB BEVERAGE COMPANY LLC	07/16/2019	07/16/2019	07/19/2019	IC	650   	318273	308724
2038862	2019	P	I	L1	HEB BEVERAGE CO LLC	07/16/2019	07/16/2019	07/19/2019	IC	650   	315563	306096
2040511	2019	P	I	L1	HEB BEVERAGE CO LLC	07/16/2019	07/16/2019	07/19/2019	IC	650   	289712	281020
2204658	2019	P	I	L1	HEB BEVERAGE CO LLC HEB BEVERAGE CO LLC	07/16/2019	07/16/2019	07/19/2019	IC	650   	280376	271964
2272907	2019	P	I	L1	HEB BEVERAGE COMPANY	07/16/2019	07/16/2019	07/19/2019	IC	650   	280072	271669
2237469	2019	P	I	L1	HEB BEVERAGE COMPANY LLC	07/16/2019	07/16/2019	07/19/2019	IC	650   	279496	271111
2283041	2019	P	I	L1	HEB BEVERAGE COMPANY	07/16/2019	07/16/2019	07/19/2019	IC	650   	254862	247216
0913190	2019	P	I	L1	HEB BEVERAGE CO LLC #551	07/16/2019	07/16/2019	07/19/2019	IC	650   	243117	235823
2272439	2019	P	I	L1	HEB BEVERAGE COMPANY LLC	07/16/2019	07/16/2019	07/19/2019	IC	650   	218836	212270
0955964	2019	P	I	L1	H E B BEVERAGE CO #498	07/16/2019	07/16/2019	07/19/2019	IC	650   	217123	210609
0913195	2019	P	I	L1	HEB BEVERAGE CO LLC #497	07/16/2019	07/16/2019	07/19/2019	IC	650   	214064	207642
2097529	2019	P	I	L1	HEB BEVERAGE COMPANY LLC	07/16/2019	07/16/2019	07/19/2019	IC	650   	208141	201896
2124629	2019	P	I	L1	HEB BEVERAGE COMPANY, LLC	07/16/2019	07/16/2019	07/19/2019	IC	650   	190634	184914
0893455	2019	P	I	L1	HEB PANTRY #471	07/16/2019	07/16/2019	07/19/2019	IC	650   	154954	145656
2020453	2019	P	I	L1	THE VILLAGE AT GLENNLOCH FARMS	07/16/2019	07/12/2019	07/19/2019	IN	650   	1	1
0798540	2019	P	I	L1	WAGNERS FISHING & OILFIELD SERVICES & SUPPLY INC	07/02/2019	07/02/2019	07/03/2019	IC	      	267100	170445
2113314	2019	P	I	L1	SHAPIRO SCHWARTZ LLP	07/02/2019	07/02/2019	07/03/2019	IC	      	265104	191679
2131604	2019	P	I	L1	TEXAS TRUCK PARTS & TIRES	07/02/2019	07/02/2019	07/03/2019	IN	356   	83116	83116
2179101	2019	P	I	L1	HET SERVICES INC	07/02/2019	07/02/2019	07/03/2019	IC	356   	24270	9315
2171515	2019	P	I	L1	K E C INCORPORATED	07/02/2019	07/02/2019	07/03/2019	IN	356   	19387	19387
2185229	2019	P	I	L1	TEXAS TRUCK & TIRE	07/02/2019	07/02/2019	07/03/2019	IN	356   	3879	3879
2096920	2019	P	I	L1	GOLBOW FARM	07/02/2019	07/02/2019	07/03/2019	IC	356   	1170	500
0884238	2019	P	I	L1	KEVIN'S EQUIPMENT CO	07/02/2019	07/02/2019	07/03/2019	IN	356   	1679435	1679435
0323904	2019	P	I	L1	STEPHEN J. SMITH	07/02/2019	07/02/2019	07/03/2019	IN	356   	2043	2043
1055493	2019	P	I	L1	BRAZOS FENCE INC	07/02/2019	07/01/2019	07/03/2019	IN	7055  	35259	35259
2148843	2019	P	I	L1	IRONMAN METALS	07/02/2019	07/01/2019	07/03/2019	IN	7055  	14984	14984
2142652	2019	P	I	L1	MARIO VAZQUEZ & ASSOCIATES INC	07/02/2019	07/01/2019	07/03/2019	IN	7055  	8075	8075
0976643	2019	P	I	L1	SOUTHWESTERN PAINT CO	07/02/2019	07/01/2019	07/03/2019	IN	7055  	2588	2588
2112782	2019	P	I	L1	GOBARE INC	07/02/2019	07/01/2019	07/03/2019	IN	7055  	972	972
2073889	2019	P	I	L1	FIRST SOURCE ELECTRICAL	07/02/2019	07/01/2019	07/03/2019	IN	7055  	3611602	3611602
0045913	2019	P	I	L1	HILLCROFT MEDICAL CLINIC ASSOCIATION,P.A.	07/02/2019	07/01/2019	07/03/2019	IN	7055  	291022	291022
2236094	2019	P	F	L1	WOOSTER'S GARDEN	07/02/2019	07/01/2019	07/19/2019	NN	7055  	183255	183255
2217865	2019	P	F	L1	HOUSTON NORTHWEST CANCER CENTER	07/02/2019	07/01/2019	07/19/2019	NN	7055  	144756	144756
2214331	2019	P	F	L1	PRECISION RADIOTHERAPY CENTER	07/02/2019	07/01/2019	07/19/2019	NN	7055  	74451	74451
2042763	2019	P	I	L1	BRAZOS FENCE	07/02/2019	07/01/2019	07/03/2019	IN	7055  	43227	43227
0430245	2019	P	I	L1	SOUTHWESTERN PAINT AND WALLPAPER CO INC	07/02/2019	07/01/2019	07/03/2019	IN	7055  	41292	41292
2058858	2019	P	I	L1	SOUTHWESTERN PAINT & WALLPAPER CO	07/02/2019	07/01/2019	07/03/2019	IN	7055  	40734	40734
1060972	2019	P	I	L1	MY MECHANIC AT KIRBY	07/02/2019	07/01/2019	07/03/2019	IN	7055  	21923	21923
2227073	2019	P	I	L1	HILLCROFT MEDICAL CLINIC ASSOCIATION	07/02/2019	07/01/2019	07/03/2019	IN	7055  	18500	18500
0572837	2019	P	I	L1	R A WEAVER ELECTRIC INC	07/02/2019	07/01/2019	07/03/2019	IN	7055  	10480	10480
0346484	2019	P	I	L1	MILESTONE PROPERTIES INC	07/02/2019	07/01/2019	07/03/2019	IN	7055  	8937	8937
2198843	2019	P	I	L1	TRAVIS MEDICAL SALES CORP	07/02/2019	07/01/2019	07/03/2019	IN	7055  	6700	6700
0685717	2019	P	I	L1	TARRYTOWNE ESTATES	07/02/2019	06/20/2019	06/21/2019	PC	      	250283	16278
2188808	2019	P	I	L1	99 CENTS ONLY STORE #2875	07/02/2019		07/03/2019	WD	62    	299893	299893
2041102	2019	P	I	L1	99 CENTS ONLY STORES TEXAS INC #2852	07/02/2019		07/03/2019	WD	62    	298288	298288
2120229	2019	P	I	L1	99 CENTS ONLY STORES, INC. #2860	07/02/2019		07/03/2019	WD	62    	297394	297394
2166986	2019	P	I	L1	99 CENTS ONLY STORES #2874	07/02/2019		07/03/2019	WD	62    	296613	296613
1004208	2019	P	I	L1	99 CENTS ONLY STORES TEXAS INC #2810	07/02/2019		07/03/2019	WD	62    	292918	292918
1041872	2019	P	I	L1	99 CENTS ONLY STORES TEXAS INC #2836	07/02/2019		08/09/2019	WD	62    	290340	290340
2018168	2019	P	I	L1	99 CENTS ONLY STORES TEXAS INC #2843	07/02/2019		07/03/2019	WD	62    	283868	283868
1006227	2019	P	I	L1	99 CENTS ONLY STORES TEXAS INC #2803	07/02/2019		08/09/2019	WD	62    	280159	280159
1005149	2019	P	I	L1	99 CENTS ONLY STORES TEXAS INC #2814	07/02/2019		07/03/2019	WD	62    	279430	279430
0975060	2019	P	I	L1	99 CENTS ONLY STORES TEXAS INC #2806	07/02/2019		07/03/2019	WD	62    	274121	274121
1040221	2019	P	I	L1	99 CENTS ONLY STORES TEXAS INC #2835	07/02/2019		08/09/2019	WD	62    	246258	246258
0984465	2019	P	I	L1	99 CENTS ONLY STORES TEXAS INC #2813	07/02/2019		08/09/2019	WD	62    	244591	244591
0986971	2019	P	I	L1	99 CENTS ONLY STORES TEXAS INC #2802	07/02/2019		07/03/2019	WD	62    	243306	243306
1012331	2019	P	I	L1	99 CENTS ONLY STORES TEXAS INC #2809	07/02/2019		07/03/2019	WD	62    	234382	234382
2166531	2019	P	I	L1	99 CENTS ONLY STORE #2872	07/02/2019		07/03/2019	WD	62    	232360	232360
1004114	2019	P	I	L1	99 CENTS ONLY STORES TEXAS INC #2816	07/02/2019		07/03/2019	WD	62    	230860	230860
2188157	2019	P	I	L1	99 CENTS ONLY STORE #2877	07/02/2019		07/03/2019	WD	62    	213692	213692
0951552	2019	P	F	L1	BURKE'S OUTLET #589	07/02/2019	07/11/2019	07/19/2019	FN	62    	205873	205873
2140185	2019	P	F	L1	BURKE'S OUTLET #552	07/02/2019	07/15/2019	07/19/2019	FN	62    	178685	178685
2314192	2019	P	I	L1	HOWMEDICA OSTEONICS CORPORATION	07/02/2019		07/03/2019	WD	62    	177920	177920
2124934	2019	P	I	L1	BROCK SERVICES LTD	07/02/2019		06/21/2019	WD	62    	137821	137821
2143132	2019	P	I	L1	RISING STAR ACADEMY	07/29/2019	07/29/2019	08/02/2019	IC	      	248413	19316
0917766	2019	P	F	L1	CRONIMET CORPORATION	07/02/2019	07/02/2019	07/03/2019	FN	3434  	59949	59949
0484003	2019	P	F	L1	JOHNSON SUPPLY	07/02/2019	07/02/2019	07/03/2019	FN	3434  	55868	55868
0554685	2019	P	I	L1	TOOLPUSHER SUPPLY CO	07/02/2019		06/21/2019	WD	3434  	15451	15451
2247504	2019	P	F	L1	LONGHORN LANDSCAPE SERVICES INC	07/02/2019	07/02/2019	07/12/2019	DC	3434  	500	260
0547438	2019	P	I	L1	BEARINGS LIMITED	07/02/2019		06/28/2019	WD	3434  	1104831	1104831
2238073	2019	P	I	L1	MRI CENTERS OF TEXAS	07/02/2019		06/21/2019	WD	9003  	236260	236260
0001053	2019	P	I	L1	CUSTOM BLAST SERVICES INC	07/02/2019		06/21/2019	WD	62    	291975	291975
0954242	2019	P	I	L1	BURKES OUTLET-TX INC #602	07/02/2019		07/19/2019	NN	62    	236935	236935
2095470	2019	P	I	L1	CUSTOM BLAST SERVICES INC	07/02/2019		06/21/2019	WD	62    	157401	157401
0029675	2019	P	I	L1	BROWN BOOK SHOP, INC.	07/02/2019		07/19/2019	NN	3030  	450529	450529
0462590	2019	P	I	L1	MICKEY GILLEY INTERESTS INC	07/02/2019		07/19/2019	NN	3030  	1831	1831
2164811	2019	P	I	L1	LONGHORN STEAKHOUSE #125481	07/02/2019		07/03/2019	WD	3212  	261678	261678
2132265	2019	P	I	L1	OLIVE GARDEN #1850	07/02/2019		07/03/2019	WD	3212  	247459	247459
0377365	2019	P	F	L1	OLIVE GARDEN #1040	07/02/2019	07/15/2019	07/19/2019	FN	3212  	242937	242937
2138738	2019	P	I	L1	OLIVE GARDEN #24408	07/02/2019		07/03/2019	WD	3212  	234532	234532
0545189	2019	P	F	L1	OLIVE GARDEN #1259	07/02/2019	07/15/2019	07/19/2019	FN	3212  	226360	226360
0356590	2019	P	F	L1	OLIVE GARDEN #1047	07/02/2019	07/15/2019	07/19/2019	FN	3212  	220616	220616
2151821	2019	P	I	L1	LONGHORN STEAKHOUSE #125439	07/02/2019		07/03/2019	WD	3212  	220182	220182
0436971	2019	P	F	L1	OLIVE GARDEN #1166	07/02/2019	07/15/2019	07/19/2019	FN	3212  	218555	218555
0545188	2019	P	F	L1	OLIVE GARDEN #1285	07/02/2019	07/15/2019	07/19/2019	FN	3212  	213333	213333
2081498	2019	P	F	L1	OLIVE GARDEN #1803	07/02/2019	07/15/2019	07/19/2019	FN	3212  	208925	208925
2164784	2019	P	I	L1	LONGHORN STEAKHOUSE #125471	07/02/2019		07/03/2019	WD	3212  	203414	203414
2164825	2019	P	I	L1	LONGHORN STEAKHOUSE #125487	07/02/2019		07/03/2019	WD	3212  	201170	201170
2112680	2019	P	I	L1	K & A EXPRESS LLC	07/02/2019	07/02/2019	07/03/2019	IC	      	218707	143672
0782724	2019	P	I	L1	BLUES MANAGEMENT INC	07/02/2019	07/02/2019	07/03/2019	IC	      	210306	43212
2247611	2019	P	I	L1	TEXAS TORNADOS TRAIN	07/02/2019		07/19/2019	NN	      	208799	208799
2277939	2019	P	I	L1	FIRST CHOICE EMERGENCY ROOM	07/18/2019		07/19/2019	WD	      	206539	206539
0804980	2019	P	I	L1	SOURCE POINT SOLUTIONS LLC	07/02/2019	07/02/2019	07/03/2019	IN	6046  	593405	593405
0840629	2019	P	I	L1	IRISH DAY FARM INC	07/02/2019	07/02/2019	07/03/2019	IN	6046  	162153	162153
2010772	2019	P	I	L1	CMR ENERGY LP	07/02/2019	07/02/2019	07/03/2019	IN	6046  	58694	58694
2116932	2019	P	I	L1	AMBERS TRUCKING LLC	07/02/2019	07/02/2019	07/19/2019	NN	6046  	15600	15600
2199852	2019	P	I	L1	IRISH DAY FARM INC	07/02/2019	07/02/2019	07/03/2019	IN	6046  	7462	7462
2212453	2019	P	I	L1	BFG TIRE SUPPLY	07/02/2019	07/02/2019	07/03/2019	IN	6046  	755190	755190
0921374	2019	P	I	L1	THE GATEWAY LOGISTIC GROUP INC	07/02/2019	07/02/2019	07/03/2019	IN	6046  	375217	375217
2270341	2019	P	I	L1	51FIFTEEN CUISINE & COCKTAILS	07/02/2019	07/02/2019	07/03/2019	IN	6046  	269736	269736
0691641	2019	P	I	L1	SOURCE POINT SOLUTIONS LLC	07/02/2019	07/02/2019	07/03/2019	IN	6046  	96100	96100
2217512	2019	P	I	L1	UPTOWN DIAMOND & JEWELRY LLC	07/02/2019	07/02/2019	07/03/2019	IN	6046  	57540	57540
2278129	2019	P	I	L1	ADVANCE DIAGNOSTICS	07/02/2019	07/02/2019	07/03/2019	IN	6046  	39000	39000
0820131	2019	P	I	L1	IRISH DAY FARM INC	07/02/2019	07/02/2019	07/03/2019	IN	6046  	23408	23408
0108123	2019	P	I	L1	JSC FEDERAL CREDIT UNION	07/02/2019		07/19/2019	NN	      	202500	202500
2039661	2019	P	I	L1	WASHINGTON AVE PILATES	07/02/2019	07/02/2019	07/03/2019	IC	      	201473	27868
2244747	2019	P	I	L1	BIG CITY WINGS	07/02/2019		07/19/2019	NN	      	197944	197944
2054803	2019	P	I	L1	HAMPTON INN-HOBBY	07/02/2019		07/19/2019	NN	3064  	188770	188770
2231596	2019	P	I	L1	MUSE DENTAL STUDIO	07/02/2019		07/19/2019	NN	      	184836	184836
2236820	2019	P	I	L1	KARLA JEAN KOOP MAKRU LLC	07/02/2019	07/02/2019	07/03/2019	IC	      	182500	10250
0983852	2019	P	I	L1	ACTION RAGS USA LLC	07/02/2019		07/19/2019	NN	7042  	179473	179473
2139592	2019	P	F	L1	APPLE OF MY EYE ACADEMY LLC	07/02/2019	08/01/2019	08/02/2019	DC	      	178461	11145
0498690	2019	P	I	L1	ADAMS INSURANCE SERVICE INC	06/24/2019	06/24/2019	08/02/2019	ON	3213  	623502	623502
0586167	2019	P	I	L1	ADAMS REAL ESTATE	06/24/2019	06/24/2019	08/02/2019	ON	3213  	61811	61811
0582516	2019	P	I	L1	GATOR LAKE RANCH	07/02/2019	07/02/2019	07/03/2019	IC	3213  	12589	12089
2088587	2019	P	I	L1	APACHE OIL CO INC	07/02/2019		07/19/2019	NN	3213  	10946	10946
2220561	2019	P	I	L1	BICYCLE WORLD	07/02/2019		07/19/2019	NN	3213  	457486	457486
0001990	2019	P	I	L1	HOUSTON-PASADENA APACHE OIL COMPANY INCORPORATED	07/02/2019		07/19/2019	NN	3213  	86925	86925
0043032	2019	P	I	L1	ADAMS INS SERVICE INC	06/24/2019	06/24/2019	08/02/2019	ON	3213  	69283	69283
2286662	2019	P	I	L1	KIDS R KIDS #37	07/02/2019		07/19/2019	NN	3213  	21165	21165
2243292	2019	P	I	L1	BRIDGEWOOD WOOD GLEN LLC	07/02/2019	07/01/2019	07/03/2019	PC	397   	157770	17356
0588326	2019	P	I	L1	WCM GROUP INC THE	07/02/2019		06/21/2019	WD	397   	115294	115294
2250607	2019	P	I	L1	GULF COAST MECHANICAL LLC	07/02/2019		06/21/2019	WD	397   	354600	354600
2092991	2019	P	I	L1	O LAN O FOOD MARKET	07/02/2019		07/19/2019	NN	      	164220	164220
2215863	2019	P	I	L1	SEAONE CARIBBEAN LLC	07/02/2019		07/19/2019	NN	      	164151	164151
0480579	2019	P	F	L1	NORTHWEST GLASS & MIRROR INC	07/24/2019	07/24/2019	07/26/2019	DC	      	160003	144935
2282267	2019	P	I	L1	DE'CORDOVA EYE WEAR	07/02/2019	07/02/2019	07/03/2019	IC	      	159327	70366
2136014	2019	P	I	L1	TIMEWISE STORE #12401	07/02/2019	06/28/2019	07/03/2019	PC	301   	181245	121276
2121687	2019	P	I	L1	TEXAS PETROLEUM GROUP LLC #290	07/02/2019	06/28/2019	07/03/2019	PC	301   	136792	120305
2116855	2019	P	I	L1	ARBORLEAF ENGINEERING & SURVEYING, INC.	07/02/2019		06/21/2019	WD	312   	159011	159011
2168586	2019	P	I	L1	PEOPLE CHOICE LIMOUSINE LLC	07/02/2019	07/02/2019	07/03/2019	IC	      	157730	72211
2055814	2019	P	I	L1	WESTBRAE COURT	07/02/2019	06/20/2019	06/21/2019	PC	      	145586	23386
0646650	2019	P	I	L1	MONEY'S PAWN SHOP LLC	07/02/2019	07/02/2019	07/03/2019	IC	      	141318	104252
2159240	2019	P	I	L1	HOUSTON GREEN LEAF ENTERPRISES	07/09/2019	07/09/2019	07/12/2019	IC	      	141265	78133
2223630	2019	P	I	L1	NATURE'S KITCHEN	07/02/2019		07/19/2019	NN	      	140075	140075
2296195	2019	P	I	L1	QUEENSTON FOOD MART	07/02/2019		06/21/2019	WD	      	139700	139700
2293179	2019	P	I	L1	SPACE CITY SERVICES	07/03/2019	07/03/2019	07/12/2019	IC	6066  	225089	211445
2084035	2019	P	I	L1	SPACE CITY HOT SHOT INC	07/03/2019	07/03/2019	07/12/2019	IN	6066  	53872	53872
2249340	2019	P	F	L1	FUZZY'S TACO SHOP	07/02/2019	07/02/2019	07/19/2019	FN	404   	165877	165877
2249348	2019	P	F	L1	FUZZY'S TACO SHOP	07/02/2019	07/02/2019	07/19/2019	FN	404   	110495	110495
0643894	2019	P	I	L1	TILSON BUILT COMPANY	07/02/2019		07/19/2019	NN	      	135766	135766
2311595	2019	P	I	L1	RV ALL FLOORS LLC	07/18/2019	07/18/2019	07/19/2019	IC	      	130858	902
0699514	2019	P	I	L1	MONARCH LANDSCAPING LP	07/02/2019	07/02/2019	07/03/2019	IN	3115  	276726	276726
0978978	2019	P	I	L1	MONARCH LANDSCAPE MANAGEMENT LLC	07/02/2019	07/02/2019	07/03/2019	IN	3115  	252646	252646
0848112	2019	P	F	L1	USA PRECISION MACHINING CO	07/02/2019		07/12/2019	WD	3115  	83370	83370
2209286	2019	P	I	L1	BD & C HOLDINGS LLC	07/02/2019		07/12/2019	WD	3115  	43400	43400
1037114	2019	P	I	L1	R M C TOOLING CO INC	07/02/2019		07/12/2019	WD	3115  	6899	6899
2131233	2019	P	I	L1	TEXSCAPE SERVICES LLC	07/02/2019	07/02/2019	07/03/2019	IN	3115  	279748	279748
0565064	2019	P	I	L1	VISION SOURCE KINGWOOD PA	07/02/2019	07/02/2019	07/03/2019	IN	3115  	234360	234360
0662397	2019	P	I	L1	MONARCH LANDSCAPING LP	07/02/2019	07/02/2019	07/03/2019	IN	3115  	209236	209236
0073563	2019	P	I	L1	CHAMBERLIN HOUSTON, LLC	07/02/2019	07/02/2019	07/03/2019	IN	3115  	192347	192347
2090486	2019	P	I	L1	B&D CONTRACTORS INC	07/02/2019		07/12/2019	WD	3115  	171742	171742
1016429	2019	P	I	L1	MONARCH LANDSCAPE MANAGEMENT LLC	07/02/2019		07/12/2019	WD	3115  	159881	159881
0341262	2019	P	I	L1	R M C TOOLING CO INC	07/02/2019		07/12/2019	WD	3115  	106642	106642
2287873	2019	P	I	L1	TNL VENTURES LLC	07/02/2019		07/12/2019	WD	3115  	19476	19476
2209187	2019	P	I	L1	PRECISE MECHANICAL SALES & SERVICE	07/02/2019		07/12/2019	WD	3115  	14148	14148
2032554	2019	P	I	L1	HIGHLANDS STOR-ALL	07/02/2019		07/12/2019	WD	3115  	12973	12973
0602558	2019	P	I	L1	MAIN PLAZA STORAGE	07/02/2019		07/12/2019	WD	3115  	10602	10602
2235669	2019	P	I	L1	BAHAMA BUCKS	07/16/2019		07/19/2019	NN	      	121934	121934
2022443	2019	P	I	L1	SUNNY FOOD STORE	07/02/2019		07/19/2019	NN	      	120968	120968
2248374	2019	P	I	L1	MCALISTER'S DELI	07/30/2019	07/26/2019	08/02/2019	IN	8094  	162625	162625
2205399	2019	P	I	L1	TOBACCO 4U - PERK AND PUFF LOUNGE	07/30/2019	07/26/2019	08/02/2019	IN	8094  	78598	78598
2237054	2019	P	I	L1	UNITED SPECIALTY AUTOMOTIVE	07/02/2019		07/19/2019	NN	      	120346	93506
2053728	2019	P	I	L1	SUPREME ELECTRICAL SERVICES INC	07/02/2019		06/28/2019	WD	5047  	174376	174376
2141553	2019	P	I	L1	LIME INSTRUMENTS LLC	07/02/2019	07/02/2019	07/03/2019	IC	5047  	110169	71642
2141535	2019	P	F	L1	K & B INDUSTRIES	07/02/2019	07/02/2019	07/03/2019	DC	5047  	66287	54389
2007054	2019	P	I	L1	A C PLUMBING SUPPLY INC	07/02/2019		07/19/2019	NN	      	113008	113008
0986211	2019	P	I	L1	6 BAR CORPORATION	07/02/2019		07/19/2019	NN	4021  	112743	112743
0264516	2019	P	I	L1	JSC FEDERAL CREDIT UNION	07/02/2019		07/19/2019	NN	      	109197	109197
2268705	2019	P	I	L1	GAUCHO DO SUL CHURRASCARIA	07/02/2019		07/19/2019	NN	3211  	199089	199089
2249913	2019	P	I	L1	THROUGHGOOD COFFEE	07/02/2019		07/19/2019	NN	3211  	110333	110333
2030146	2019	P	I	L1	ZEE SHON STORE	07/02/2019		07/19/2019	NN	3211  	17628	17628
2283149	2019	P	I	L1	STAR STOP 94	07/02/2019		06/14/2019	WD	3270  	150658	150658
2284675	2019	P	I	L1	V STOP	07/02/2019		06/14/2019	WD	3270  	141845	141845
2270302	2019	P	I	L1	STAR STOP 96	07/02/2019		06/14/2019	WD	3270  	135878	135878
2277064	2019	P	I	L1	STAR STOP #98	07/02/2019		06/14/2019	WD	3270  	121682	121682
2249404	2019	P	I	L1	ROADSTER #9	07/02/2019		06/14/2019	WD	3270  	115978	115978
2195535	2019	P	I	L1	STAR STOP 51	07/02/2019		06/14/2019	WD	3270  	94378	94378
2166331	2019	P	I	L1	TIME RISE MART	07/02/2019		06/14/2019	WD	3270  	60945	60945
2281918	2019	P	I	L1	MEGA FUEL #21	07/02/2019		06/14/2019	WD	3270  	50477	50477
2069782	2019	P	I	L1	JOHNSON SPACE CENTER FEDERAL CREDIT UNION	07/02/2019		07/19/2019	NN	      	106000	106000
0348279	2019	P	I	L1	SCOPE IMPORTS INC	07/02/2019	07/02/2019	07/03/2019	IC	      	105689	42186
2181870	2019	P	F	L1	CHARIOT XXI	07/02/2019	07/02/2019	07/03/2019	DC	      	104885	90000
0841486	2019	P	I	L1	MW CORNERSTONE CONSTRUCT CO INC	07/02/2019	07/02/2019	07/03/2019	IC	      	104280	72493
2275824	2019	P	I	L1	BIG CITY WINGS	07/02/2019		07/19/2019	NN	      	102787	102787
2056419	2019	P	F	L1	NEOPAL LLC	07/02/2019	07/11/2019	07/19/2019	FN	6207  	179351	179351
2074432	2019	P	I	L1	LIFE SCIENCE PLAZA	07/02/2019		07/19/2019	NN	6207  	19500	19500
2130803	2019	P	I	L1	CAR KING TOWING	07/02/2019		07/19/2019	NN	3189  	241115	241115
0776831	2019	P	I	L1	CORNELIA C TREJO DDS	07/02/2019		07/19/2019	NN	3189  	134318	134318
0884836	2019	P	I	L1	ROB PELLETIER CONSTRUCTION INC	07/02/2019		07/19/2019	NN	3189  	17648	17648
2165049	2019	P	I	L1	FRANK WANG LAW OFFICE	07/02/2019		07/19/2019	NN	3189  	4355	4355
0500391	2019	P	I	L1	ULRICH ENGINEERS, INC.	07/02/2019	07/02/2019	07/03/2019	IC	      	98347	85010
2153230	2019	P	I	L1	MERLO'S LIMOUSINES & CHARTERS	07/02/2019		06/28/2019	WD	5015  	619984	619984
0594827	2019	P	I	L1	HUBBARD ELECTRIC COMPANY	07/02/2019		06/28/2019	WD	5015  	44164	44164
0485960	2019	P	I	L1	ASSOCIATED WEAR COATINGS INC	07/02/2019		06/28/2019	WD	5015  	6710	6710
2190890	2019	P	I	L1	GILBERTO ALVAREZ	07/02/2019		06/28/2019	WD	5015  	4916	4916
2277807	2019	P	I	L1	SALATA SPRING	07/02/2019	07/02/2019	08/02/2019	IC	5015  	140694	85031
2284248	2019	P	I	L1	SALATA	07/02/2019		06/28/2019	WD	5015  	91500	91500
2300107	2019	P	I	L1	SALATA	07/02/2019		06/28/2019	WD	5015  	79000	79000
0906445	2019	P	I	L1	MI PUEBLITO	07/02/2019	07/02/2019	07/03/2019	IC	5015  	68000	54202
2152068	2019	P	I	L1	PHO HUY NOODLE HOUSE	07/02/2019		06/28/2019	WD	5015  	44358	44358
0796704	2019	P	I	L1	J MARIO VELASQUEZ DDS PC	07/02/2019		06/28/2019	WD	5015  	20150	20150
2057731	2019	P	I	L1	DENTAL INNOVATIONS	07/02/2019		06/28/2019	WD	5015  	19150	19150
0504650	2019	P	I	L1	UST SERVICES INC	07/02/2019		06/28/2019	WD	5015  	15700	15700
2069244	2019	P	I	L1	ALAIN GARCIA	07/02/2019		07/19/2019	NN	      	94905	94905
2242146	2019	P	I	L1	BIG CITY WINGS	07/02/2019		07/19/2019	NN	      	94863	94863
0931847	2019	P	I	L1	ARROWMONT CONSTRUCTORS	07/03/2019	07/03/2019	07/12/2019	IC	      	94592	74435
2297011	2019	P	I	L1	ARIANA'S FURNITURE	07/03/2019		07/19/2019	NN	      	93898	93898
0981730	2019	P	F	L1	FULWAY INTL INC	07/03/2019	07/11/2019	07/19/2019	FN	      	93164	93164
0969959	2019	P	I	L1	BRIAN GARDENS LANDSCAPE DESIGN AND IRRIGATION	07/03/2019	07/03/2019	07/12/2019	IC	      	92832	68236
2292343	2019	P	F	L1	GROUND TRANSPORTERS LLC	07/03/2019	07/03/2019	07/19/2019	FN	      	91921	91921
2284135	2019	P	I	L1	EZ WIRELESS AND GIFTS	07/03/2019	07/03/2019	07/12/2019	IC	      	89512	13582
2245368	2019	P	F	L1	KING PRODUCE	07/03/2019	07/03/2019	07/19/2019	FC	      	85610	79780
1021896	2019	P	F	L1	LABARGE PIPE & STEEL CO PROPERTY TAX DEPT 500 N	07/03/2019	07/03/2019	07/19/2019	FN	3143  	37232	37232
0489554	2019	P	F	L1	HARMONY ELECTRIC CO INC	07/03/2019	07/03/2019	07/19/2019	FN	3143  	15718	15718
0824336	2019	P	I	L1	FLEMING NOLAN AND JEZ LLP	07/03/2019		07/12/2019	WD	3143  	203030	203030
2101110	2019	P	I	L1	MUCHO MEXICO	07/03/2019		07/19/2019	NN	      	84789	84789
2291153	2019	P	I	L1	WAKASA LLC	07/03/2019		07/19/2019	NN	      	84033	84033
0963972	2019	P	I	L1	WOODWAY EXXON	07/03/2019		07/19/2019	NN	      	82389	82389
0800550	2019	P	I	L1	CONCENTRA MEDICAL CTR BLDG G STE 100	07/03/2019	07/01/2019	07/03/2019	PC	5010  	94441	89398
0906360	2019	P	I	L1	CONCENTRA MEDICAL CENTER #34564	07/03/2019	07/01/2019	07/03/2019	PC	5010  	63203	58404
0968209	2019	P	I	L1	YARDMASTERS INC	07/03/2019	07/03/2019	07/12/2019	IC	      	78718	48014
0945851	2019	P	I	L1	VICKI'S ANTIQUES ON MAIN	07/10/2019		07/19/2019	NN	      	77793	77793
0529130	2019	P	F	L1	BUILDERS WEST INC	07/03/2019	07/03/2019	07/19/2019	FC	      	77742	59018
2138483	2019	P	I	L1	CHAMPIONS FOOD STORE	07/03/2019	07/03/2019	07/12/2019	IC	      	76257	29160
2223516	2019	P	F	L1	MY FAVORITE CARWASH #2	07/03/2019	07/03/2019	07/19/2019	FC	      	75989	68388
2079079	2019	P	I	L1	WAY-TECH INC	07/03/2019	07/03/2019	07/12/2019	IC	164   	75971	56471
0483845	2019	P	F	L1	SPRING BODY SHOP INC	07/03/2019	07/03/2019	07/12/2019	DN	      	75336	75336
2148627	2019	P	I	L1	AUJLA TRANSPORTATION LLC	07/03/2019	07/03/2019	07/12/2019	IC	      	71329	20674
1020460	2019	P	F	L1	SAFE DEPOSIT SPECIALISTS	07/03/2019	07/11/2019	07/19/2019	FC	      	70024	55191
2011483	2019	P	I	L1	BROAD MINI MARKET	07/03/2019	06/27/2019	06/28/2019	PC	4053  	68205	58205
2311011	2019	P	F	L1	CHINCHILLA TIRES #2	07/03/2019	07/03/2019	07/19/2019	FC	      	67114	38432
0485046	2019	P	I	L1	W-INDUSTRIES LLC	06/21/2019	06/21/2019	08/02/2019	ON	4075  	214935	214935
2144369	2019	P	I	L1	DOLIVER CAPITAL ADVISORS LP	06/17/2019	06/17/2019		ON	4075  	9485	9485
2142435	2019	P	I	L1	TRI KIN ENTERPRISES INC	06/17/2019	06/17/2019		ON	4075  	1054	1054
0912256	2019	P	I	L1	SMILE IMAGE, PA	06/17/2019	06/17/2019	08/02/2019	ON	4075  	37433	37433
2234181	2019	P	I	L1	KPLAN PHARMACY	07/03/2019	07/03/2019	07/12/2019	IC	      	64491	3240
2171449	2019	P	I	L1	ROESLER ASSOCIATES INC	07/03/2019	07/03/2019	07/12/2019	IC	      	62869	53384
0937645	2019	P	I	L1	HOUSTON SPINE & NEUROLOGY CENTER PA	07/03/2019		07/19/2019	NN	      	61700	61700
2276881	2019	P	I	L1	SUB ZERO NITROGEN ICE CREAM	07/03/2019	07/03/2019	07/12/2019	IN	      	61498	61498
2053912	2019	P	I	L1	THE MAIDS HOME SERVICES	07/03/2019		07/19/2019	NN	      	60539	60539
0865958	2019	P	I	L1	SOUTHWEST HOUSTON TIRE SALES INC	07/03/2019	07/03/2019	07/12/2019	IC	      	59190	56837
2295802	2019	P	F	L1	GOLEN LINE ASSET MANAGEMENT LLC	07/03/2019	07/03/2019	07/19/2019	FN	8095  	12770	12770
2280752	2019	P	F	L1	KATY WELLNESS CENTER & FAMILY PHYSICIANS	07/03/2019	07/03/2019	07/19/2019	FN	8095  	99020	99020
2277270	2019	P	I	L1	DESI HALAL FOOD MART	07/03/2019	07/03/2019	07/12/2019	IC	8095  	75460	56310
2126109	2019	P	I	L1	SHOP N GO FOOD STORE	07/03/2019	07/03/2019	07/12/2019	IN	8095  	47887	47887
2297482	2019	P	I	L1	168 SZECHUAN RESTAURANT INC	07/03/2019	07/03/2019	07/12/2019	IC	      	56841	15222
2153983	2019	P	I	L1	EL TIEMPO ELMDALE LLC	07/03/2019		06/21/2019	WD	3030  	62751	62751
0944869	2019	P	I	L1	JARRAR & COMPANY INC	07/03/2019		06/21/2019	WD	3030  	50513	50513
2108557	2019	P	I	L1	DECLARATION TITLE	07/03/2019		07/19/2019	NN	      	56300	56300
2125000	2019	P	I	L1	TEXAS ACADEMY OF ACROBATICS & GYMNASTICS, LLC	07/03/2019	06/28/2019	07/03/2019	IN	236   	55130	55130
2094787	2019	P	I	L1	MTB QUALITY CONSULTANTS INC	07/03/2019		07/19/2019	NN	      	55109	55109
0749294	2019	P	F	L1	PARKER FINANCIAL ADVISORS	07/03/2019	07/03/2019	07/19/2019	DC	      	54934	5000
1020229	2019	P	I	L1	CONCRETE STRAIGHTLINE SAWING	07/03/2019		07/19/2019	NN	424   	96443	96443
0516176	2019	P	I	L1	SANJAC SECURITY SPECIALIST INC	07/03/2019		07/19/2019	NN	424   	13376	13376
2178289	2019	P	I	L1	TEXAS FENCE CO	07/03/2019		07/19/2019	NN	      	54260	54260
2299313	2019	P	I	L1	SPRING PHARMACY	07/03/2019	07/03/2019	07/12/2019	IC	      	106650	7782
2112297	2019	P	I	L1	JOSE MARTIN	07/03/2019	07/03/2019	07/12/2019	IC	      	53629	500
2165652	2019	P	I	L1	RAY'S REAL PIT BBQ SHACK LLC	07/03/2019		07/19/2019	NN	      	52750	52750
0578033	2019	P	I	L1	PRECISION FOUNDATION SERVICE INC	07/03/2019	06/17/2019	06/21/2019	PC	      	50906	31180
2146557	2019	P	I	L1	HOUSTON AUTOMOTIVE GROUP INC	07/03/2019		07/19/2019	NN	      	50810	50810
2254440	2019	P	I	L1	JOY WASHATERIA	07/03/2019		07/19/2019	NN	      	50480	50480
2292796	2019	P	I	L1	LUNA & CO	07/03/2019		07/19/2019	NN	      	50435	50435
2176586	2019	P	I	L1	D TEXAS INVESTMENTS INC	07/03/2019		07/12/2019	WD	7004  	30665	30665
0486060	2019	P	I	L1	SOURCE METALS INCORPORATED	07/03/2019		07/12/2019	WD	7004  	15604	15604
2186639	2019	P	I	L1	PROFESSIONAL FLEET SALES	07/03/2019		07/12/2019	WD	7004  	13278	13278
2087272	2019	P	I	L1	KLOSE CONSTRUCTION & FABRICATION INC	07/03/2019		07/12/2019	WD	7004  	5950	5950
2176853	2019	P	I	L1	MARIA DE LOURDES HERNANDEZ	07/03/2019		07/12/2019	WD	7004  	4639	4639
1048728	2019	P	I	L1	MEMORIAL CONOCO CAR CARE	07/03/2019		07/12/2019	WD	7004  	2261	2261
0781479	2019	P	I	L1	A H D HOUSTON INC	07/03/2019		07/12/2019	WD	7004  	1367	1367
0741296	2019	P	I	L1	TREASURES	07/03/2019	07/03/2019	07/12/2019	IN	7004  	306271	306271
0544657	2019	P	I	L1	CENTERFOLDS	07/03/2019	07/03/2019	07/12/2019	IN	7004  	154352	154352
0886278	2019	P	I	L1	THE SPLENDOR	07/03/2019		07/12/2019	WD	7004  	113620	113620
0817219	2019	P	I	L1	MEMORIAL CONOCO CAR CARE	07/03/2019		07/12/2019	WD	7004  	112819	112819
0021437	2019	P	I	L1	BRENT R BROWNING DDS PC	07/03/2019		07/12/2019	WD	7004  	107813	107813
2173086	2019	P	I	L1	COVER GIRLS	07/03/2019		07/12/2019	WD	7004  	90767	90767
2085942	2019	P	I	L1	TA TEXTILES LLC	07/03/2019		07/12/2019	WD	7004  	58385	58385
2001597	2019	P	I	L1	FU'S GARDEN #2	07/03/2019		07/12/2019	WD	7004  	51888	51888
2122628	2019	P	I	L1	LEE'S SHELL	07/03/2019		07/12/2019	WD	7004  	33853	33853
2039470	2019	P	I	L1	FREQUENCY CAR AUDIO #2	07/03/2019		07/12/2019	WD	7004  	12455	12455
2121002	2019	P	I	L1	FREQUENCY AUTO LLC 3	07/03/2019		07/12/2019	WD	7004  	11235	11235
0592807	2019	P	I	L1	MONTESSORI SCHOOL OF DOWNTOWN & MEDICAL CENTER	07/03/2019		07/12/2019	WD	7004  	6480	6480
0771411	2019	P	I	L1	MONTESSORI SCHOOL OF DOWNTOWN	07/03/2019		07/12/2019	WD	7004  	5138	5138
2121063	2019	P	I	L1	FREQUENCY AUTO LLC 1	07/03/2019		07/12/2019	WD	7004  	3656	3656
0404783	2019	P	I	L1	MONTESSORI SCHOOL OF DOWM- TOWN & MEDICAL CENTER	07/03/2019		07/12/2019	WD	7004  	2755	2755
2041006	2019	P	I	L1	L AND L MANAGEMENT	07/03/2019		07/12/2019	WD	7004  	1758	1758
0700042	2019	P	I	L1	KNAPPICK AIR LLC	07/03/2019	07/03/2019	07/12/2019	IC	      	49545	30130
0480693	2019	P	F	L1	HOUSTON CHAPTER ASSOCIATED GENERAL CONTRACTORS OF	07/03/2019	07/11/2019	07/19/2019	FN	      	49519	49519
0480611	2019	P	I	L1	LARK INDUSTRIES INC	07/03/2019	07/03/2019	07/12/2019	IN	802   	140509	140509
2271619	2019	P	I	L1	BAYTOWN STORAGE LTD	07/03/2019	07/03/2019	07/12/2019	IN	802   	16609	16609
2205301	2019	P	I	L1	NORTH FRY ROAD SELF STORAGE LTD	07/03/2019	07/03/2019	07/12/2019	IC	802   	10789	9300
0486939	2019	P	I	L1	TAITEX ENTERPRISE CO	07/03/2019	07/03/2019	07/12/2019	IN	802   	4046	4046
1054503	2019	P	I	L1	GULF RACING LLC	07/03/2019	07/03/2019	07/12/2019	IC	802   	2920	2920
0476862	2019	P	I	L1	ALL PETS ANIMAL CLINIC	07/03/2019	07/03/2019	07/12/2019	IN	802   	331706	331706
2193324	2019	P	I	L1	KATY SMILE DESIGN	07/03/2019	07/03/2019	07/12/2019	IN	802   	151391	151391
0989307	2019	P	I	L1	CHALLENGE RACING LLC	07/03/2019	07/03/2019	07/12/2019	IN	802   	59997	59997
2279980	2019	P	I	L1	CYPRESS SELF STORAGE	07/03/2019	07/03/2019	07/12/2019	IN	802   	9122	9122
2163563	2019	P	I	L1	THE JENKINS ORGANIZATIONS INC	07/03/2019	07/03/2019	07/12/2019	IN	802   	4067	4067
2057760	2019	P	I	L1	HENNESSEE COMPANIES INC	07/03/2019	07/03/2019	07/12/2019	IN	802   	3269	3269
2274560	2019	P	I	L1	HUMBLE STORAGE	07/03/2019	07/03/2019	07/12/2019	IN	802   	2063	2063
2274008	2019	P	I	L1	BAYTOWN STORAGE LTD	07/03/2019	07/03/2019	07/12/2019	IN	802   	2049	2049
2274559	2019	P	I	L1	CYPRESS CREEK PARKWAY STORAGE	07/03/2019	07/03/2019	07/12/2019	IN	802   	1871	1871
2205264	2019	P	I	L1	NORTH FRY ROAD SELF STORAGE LTD	07/03/2019	07/03/2019	07/12/2019	IN	802   	1178	1178
2292589	2019	P	I	L1	TM DEER PARK SERVICES	07/03/2019		07/03/2019	WD	3068  	48772	48772
0483868	2019	P	I	L1	BAC TRAC PLUMBING CO INC	07/16/2019	07/16/2019	07/19/2019	IC	      	48218	43007
2289054	2019	P	F	L1	STUTTGARDEN TAVERN	07/03/2019	07/03/2019	07/19/2019	FC	      	48090	35000
2222224	2019	P	I	L1	SUAREZ CONSTRUCTION GROUP	07/03/2019	07/03/2019	07/12/2019	IC	      	47690	23726
2242131	2019	P	I	L1	ALLIED COLLISION CENTER	07/03/2019	07/03/2019	07/12/2019	IC	      	47644	25745
2028270	2019	P	I	L1	JSC FEDERAL CREDIT UNION	07/03/2019		07/19/2019	NN	      	47564	47564
2239524	2019	P	I	L1	INTERVENTIONAL PAIN SPECIALISTS	07/03/2019		07/19/2019	NN	      	46875	46875
0907386	2019	P	I	L1	LOS CUCOS MEXICAN CAFE II INC	07/03/2019	07/03/2019	07/12/2019	IN	3211  	44529	44529
2055231	2019	P	I	L1	LOS CUCOS MEXICAN CAFE INC	07/03/2019	07/03/2019	07/12/2019	IN	3211  	23782	23782
2159119	2019	P	I	L1	RAPID REPAIR AUTO CENTER	07/03/2019	07/03/2019	07/12/2019	IN	3211  	3538	3538
2139621	2019	P	I	L1	LA TAQUISA MEXICAN FOOD INC	07/03/2019	07/03/2019	07/12/2019	IN	3211  	1318	1318
0610723	2019	P	I	L1	BULL SHIRTS	07/03/2019	07/03/2019	07/12/2019	IN	3211  	1300	1300
2154231	2019	P	I	L1	RAPID AUTO CENTER	07/03/2019	07/03/2019	07/12/2019	IN	3211  	500	500
2217962	2019	P	I	L1	LOS CUCOS MEXICAN CAFE XXVIII, INC	07/03/2019	07/03/2019	07/12/2019	IN	3211  	222951	222951
2193674	2019	P	I	L1	VUELVE A LA VIDA MARISCOS INC	07/03/2019	07/03/2019	07/12/2019	IN	3211  	103866	103866
0288234	2019	P	I	L1	JOHN B CLEMMONS JR MD, PA	07/03/2019	07/03/2019	07/12/2019	IN	3211  	7426	7426
2302652	2019	P	I	L1	SENTE MORTGAGE	07/03/2019		07/19/2019	NN	      	45461	45461
2183687	2019	P	I	L1	ELITE AIR & GROUND SERVICES	07/03/2019	07/03/2019	07/12/2019	IC	      	45295	26900
0954405	2019	P	F	L1	GARZA DENTAL	07/03/2019	07/03/2019	07/19/2019	FN	3398  	45240	45240
0968747	2019	P	I	L1	G & M RV AND BOAT STORAGE	07/17/2019	07/17/2019	07/19/2019	IC	      	45238	1995
2145336	2019	P	I	L1	TL CABLE LLC	07/17/2019	07/17/2019	07/19/2019	IC	      	45007	8319
2064484	2019	P	F	L1	JIFFY LUBE	07/03/2019	07/15/2019	07/19/2019	FN	5082  	87534	87534
2113750	2019	P	F	L1	JIFFY LUBE #2814	07/03/2019	07/15/2019	07/19/2019	FN	5082  	71919	71919
2005791	2019	P	F	L1	JIFFY LUBE	07/03/2019	07/15/2019	07/19/2019	FN	5082  	60983	60983
2068910	2019	P	F	L1	JIFFY LUBE # 3309	07/03/2019	07/15/2019	07/19/2019	FN	5082  	60413	60413
2005778	2019	P	F	L1	JIFFY LUBE	07/03/2019	07/15/2019	07/19/2019	FN	5082  	47159	47159
2005786	2019	P	F	L1	JIFFY LUBE	07/03/2019	07/15/2019	07/19/2019	FN	5082  	47134	47134
2005825	2019	P	F	L1	JIFFY LUBE	07/03/2019	07/15/2019	07/19/2019	FN	5082  	45985	45985
2143463	2019	P	F	L1	ALLIED LUBE TEXAS LP #3308	07/03/2019	07/15/2019	07/19/2019	FN	5082  	45515	45515
2005798	2019	P	F	L1	JIFFY LUBE	07/03/2019	07/15/2019	07/19/2019	FN	5082  	45028	45028
2005813	2019	P	F	L1	JIFFY LUBE	07/03/2019	07/15/2019	07/19/2019	FN	5082  	42379	42379
2005776	2019	P	F	L1	JIFFY LUBE	07/03/2019	07/15/2019	07/19/2019	FN	5082  	40593	40593
2005807	2019	P	F	L1	JIFFY LUBE	07/03/2019	07/15/2019	07/19/2019	FN	5082  	40174	40174
2005770	2019	P	F	L1	JIFFY LUBE	07/03/2019	07/15/2019	07/19/2019	FN	5082  	38465	38465
2005794	2019	P	F	L1	JIFFY LUBE	07/03/2019	07/15/2019	07/19/2019	FN	5082  	37384	37384
2005782	2019	P	F	L1	JIFFY LUBE	07/03/2019	07/15/2019	07/19/2019	FN	5082  	36774	36774
2005772	2019	P	F	L1	JIFFY LUBE	07/03/2019	07/15/2019	07/19/2019	FN	5082  	35667	35667
2005818	2019	P	F	L1	JIFFY LUBE	07/03/2019	07/15/2019	07/19/2019	FN	5082  	35098	35098
2005834	2019	P	F	L1	JIFFY LUBE	07/03/2019	07/15/2019	07/19/2019	FN	5082  	34014	34014
2005802	2019	P	F	L1	JIFFY LUBE	07/03/2019	07/15/2019	07/19/2019	FN	5082  	32910	32910
2005771	2019	P	F	L1	JIFFY LUBE	07/03/2019	07/15/2019	07/19/2019	FN	5082  	32251	32251
2005800	2019	P	F	L1	JIFFY LUBE	07/03/2019	07/15/2019	07/19/2019	FN	5082  	29066	29066
2005774	2019	P	F	L1	JIFFY LUBE	07/03/2019	07/15/2019	07/19/2019	FN	5082  	26534	26534
0398799	2019	P	F	L1	MTB QUALITY CONSULTANTS,I, LTD	07/03/2019	07/09/2019	07/19/2019	FC	      	43977	9216
2198768	2019	P	F	L1	ZACHRY INDUSTRIAL INC	07/03/2019	07/11/2019	07/19/2019	FN	      	43830	43830
0661621	2019	P	I	L1	STUDEMONT SHELL	07/03/2019	07/02/2019	07/03/2019	IN	5029  	62452	62452
0702709	2019	P	I	L1	1140 MASON LLC	07/03/2019	07/02/2019	07/03/2019	IN	5029  	35529	35529
2097627	2019	P	I	L1	KINDALL AUTOMOTIVE	07/03/2019	07/02/2019	07/03/2019	IN	5029  	32015	32015
2283161	2019	P	I	L1	ECO STIM ENERGY SOLUTIONS INC	07/03/2019	07/03/2019	07/12/2019	IN	      	43276	43276
2068324	2019	P	I	L1	US MART 109	07/03/2019		07/19/2019	NN	      	43092	43092
2143743	2019	P	I	L1	SAMANO EXCAVATION	07/10/2019	07/10/2019	07/12/2019	IC	      	42387	13335
1029856	2019	P	I	L1	MISTER SWEEPER LP	07/03/2019		07/19/2019	NN	5048  	81053	81053
2159759	2019	P	I	L1	TOP NOTCH SOLUTIONS	07/03/2019		06/28/2019	WD	5048  	3033	3033
2227898	2019	P	I	L1	JO'S LIQUOR	07/03/2019		07/19/2019	NN	      	41770	41770
2191476	2019	P	F	L1	BOOSTERTHON HOUSTON	07/03/2019	07/11/2019	07/19/2019	FC	      	41079	11374
2285602	2019	P	I	L1	RAVENNA HOMES	07/03/2019		07/19/2019	NN	      	40570	40570
2143573	2019	P	I	L1	HORIZON EVALUATORS INC	07/03/2019	07/03/2019	07/12/2019	IC	      	40474	36398
0480341	2019	P	I	L1	ARROW FOUNDATION CO	07/03/2019	07/03/2019	07/12/2019	IC	      	40260	26415
2291619	2019	P	I	L1	DC EARLYBIRD TRANSPORTATION	07/03/2019		07/12/2019	WD	46311 	111291	111291
2235225	2019	P	F	L1	ATHENA INVESTMENTS LP	07/03/2019	07/15/2019	07/19/2019	FC	46311 	109963	91040
2220529	2019	P	I	L1	MANJIT S DHALIWAL	07/03/2019		07/19/2019	NN	46311 	50200	50200
2143374	2019	P	I	L1	ORCHID LIFE NURSEY LLC	07/03/2019		09/20/2019	NN	46311 	18878	18878
0838102	2019	P	I	L1	SATSUN CORPORATION	07/03/2019		07/19/2019	NN	46311 	11080	11080
2223095	2019	P	I	L1	TERRY JOHN DUGAR	07/03/2019		07/19/2019	NN	46311 	1846	1846
2082324	2019	P	I	L1	MOM ALONE MEXICAN GRILL	07/03/2019		07/19/2019	NN	46311 	78461	78461
0401002	2019	P	I	L1	IMPORTS WORLD	07/03/2019		07/19/2019	NN	46311 	53204	53204
2145426	2019	P	I	L1	HOBBY GAS STATION	07/03/2019		07/03/2019	WD	46311 	48519	48519
2214256	2019	P	I	L1	TAQUERIAS ARANDAS #38	07/03/2019		07/19/2019	NN	46311 	47075	47075
2249335	2019	P	I	L1	DUNKIN DONUTS / BASKIN ROBBINS	07/03/2019		07/19/2019	NN	46311 	46600	46600
2229500	2019	P	I	L1	TACOS Y TORTAS ADRIAN	07/03/2019		07/19/2019	NN	46311 	46246	46246
2244664	2019	P	I	L1	KIMCHI'S KOREAN CAFE	07/03/2019		07/19/2019	NN	46311 	43981	43981
2203831	2019	P	I	L1	LZ DENTAL PC	07/03/2019		07/03/2019	WD	46311 	43900	43900
2204164	2019	P	I	L1	PIZZA INN	07/03/2019		07/19/2019	NN	46311 	37686	37686
2205932	2019	P	I	L1	KBK FOOD MART	07/03/2019		07/03/2019	WD	46311 	24096	24096
0685348	2019	P	I	L1	HOUSTON FLEA MARKET	07/03/2019		07/19/2019	NN	46311 	18200	18200
0493648	2019	P	I	L1	BELLAIRE DENTAL	07/03/2019		07/19/2019	NN	46311 	16434	16434
0984945	2019	P	I	L1	PROPIEDADES VICTORIA	07/03/2019		07/12/2019	WD	46311 	10736	10736
0991481	2019	P	I	L1	APPLIED BIOSTRATIGRAPHIX	07/03/2019		07/19/2019	NN	46311 	1330	1330
0887489	2019	P	I	L1	RJL ENTERPRISES INC	07/03/2019		07/19/2019	NN	46311 	917	917
2193576	2019	P	I	L1	CELLPHONE 4 US II	07/03/2019		07/19/2019	NN	      	38919	38919
0881784	2019	P	I	L1	BENCH CRAFT CUSTOM FURNISH	07/03/2019	07/03/2019	07/12/2019	IN	      	38500	38500
2219809	2019	P	I	L1	KATY MD VENTURE LP	06/14/2019	06/14/2019		ON	3449  	5250	5250
0554078	2019	P	I	L1	CONLEY ROSE AND TAYON PC	06/14/2019	06/14/2019	08/02/2019	ON	3449  	136601	136601
2167848	2019	P	I	L1	JAVA RETREAT	06/14/2019	06/14/2019		ON	3449  	10759	10759
0913104	2019	P	I	L1	COFFEE CART	06/14/2019	06/14/2019		ON	3449  	1200	1200
0889087	2019	P	I	L1	KUYKENDAHL CITGO	07/03/2019		07/19/2019	NN	3210  	37964	37964
0377275	2019	P	I	L1	HOOPER COMMUNICATIONS LP	07/10/2019	07/10/2019	07/12/2019	IC	      	37425	7393
2223249	2019	P	I	L1	IWATANI CORPORATION OF AMERICA	07/09/2019	07/09/2019	07/12/2019	IN	      	37114	37114
2025562	2019	P	F	L1	VULCAN FINNED TUBES, LP	07/03/2019	07/11/2019	07/19/2019	FN	      	36630	36630
2089139	2019	P	I	L1	EMPIRE DENTAL CENTER	07/03/2019		07/19/2019	NN	5000  	67751	67751
2050389	2019	P	I	L1	ELEGANT LINENS	07/03/2019		07/19/2019	NN	5000  	5161	5161
2271882	2019	P	I	L1	JOUETT & JOUETT, INC	07/03/2019		07/19/2019	NN	      	35950	35950
2218564	2019	P	I	L1	PRO STEEM CARPET CARE & RESTORATIONS INC	07/03/2019	07/03/2019	07/12/2019	IC	      	35915	24135
2295717	2019	P	I	L1	VALPAK OF GREATER HOUSTON	07/03/2019	07/03/2019	07/12/2019	IC	      	35346	6001
0578830	2019	P	I	L1	RICE ELECTRONICS LP	07/03/2019	07/01/2019	07/03/2019	IC	8021  	55507	43608
2035858	2019	P	I	L1	JRN NURSERY II	07/03/2019	07/01/2019	07/19/2019	NN	8021  	15150	15150
2272090	2019	P	I	L1	MANUEL ACOSTA TORRES	07/25/2019	07/25/2019	07/26/2019	IC	      	35020	8723
0486743	2019	P	F	L1	EBF OFFICE PRODUCTS INC	07/18/2019	07/22/2019	08/02/2019	FC	      	34979	25535
0367388	2019	P	I	L1	N JEAN ROBINSON, OD PA	07/03/2019		07/19/2019	NN	      	34951	34951
2302506	2019	P	I	L1	SUNNY'S SMART STORE	07/03/2019		07/19/2019	NN	      	34232	34232
2097433	2019	P	I	L1	JORGE H RODRIGUEZ	07/03/2019		07/19/2019	NN	      	34024	34024
0055096	2019	P	I	L1	JSC FEDERAL CREDIT UNION (FNA) GTX CREDIT UNION	07/03/2019		07/19/2019	NN	      	33800	33800
0648427	2019	P	I	L1	LAZER CONSTRUCTION CO	07/03/2019	07/03/2019	07/12/2019	IN	3399  	80910	80910
1047439	2019	P	I	L1	NUNN CONSTRUCTORS LTD	07/03/2019	07/03/2019	07/12/2019	IN	3399  	45913	45913
2088992	2019	P	I	L1	DWIGHT LOWE	07/03/2019	07/03/2019	07/12/2019	IN	3399  	40819	40819
2067135	2019	P	I	L1	CALVARY CARE GROUP INC	07/03/2019	07/03/2019	07/12/2019	IN	3399  	32440	32440
0563654	2019	P	I	L1	NUNN CONSTRUCTORS, LTD.	07/03/2019	07/03/2019	07/12/2019	IN	3399  	31285	31285
2060795	2019	P	I	L1	SUNNY'S FOOD	07/03/2019	07/03/2019	07/12/2019	IN	3399  	23515	23515
0345008	2019	P	I	L1	FAMILY CENTER HEALTH CARE	07/03/2019	07/03/2019	07/12/2019	IN	3399  	10043	10043
0876798	2019	P	I	L1	DOWNTOWNER INNS	07/03/2019	07/03/2019	07/12/2019	IN	3399  	2946	2946
2166284	2019	P	I	L1	THE WOODLANDS COURIER SERVICE	07/03/2019	07/03/2019	07/12/2019	IC	      	32513	9175
2301062	2019	P	F	L1	FIX COFFEEBAR	07/03/2019	07/03/2019	07/19/2019	FN	      	32177	32177
2269993	2019	P	F	L1	CHURCH'S CHICKEN	07/03/2019	07/15/2019	07/19/2019	FN	8028  	65502	65502
2216192	2019	P	F	L1	Y R TANNER	07/03/2019	07/11/2019	07/19/2019	FN	8028  	36124	36124
1005775	2019	P	F	L1	MILLS DENTAL CARE CENTER	07/03/2019	07/15/2019	07/19/2019	FN	8028  	24063	24063
0842803	2019	P	F	L1	TEXACO FOOD MART	07/03/2019	07/15/2019	07/19/2019	FN	8028  	1650	1650
2075484	2019	P	F	L1	CAPTAIN D'S SEAFOOD KITCHEN	07/03/2019	07/03/2019	07/19/2019	FC	      	31726	21605
2300476	2019	P	I	L1	BAYOU CITY LASER	07/03/2019	07/03/2019	07/12/2019	IC	      	31682	23230
2248008	2019	P	I	L1	STODGHILL & ALLIE HOLDINGS LLC.	07/03/2019	07/03/2019	07/12/2019	IC	      	31561	12578
2200072	2019	P	I	L1	SUPERIOR HYDRAULIC SERVICES LLC	07/11/2019		07/19/2019	NN	      	31172	31172
2215064	2019	P	F	L1	JOHN DOYLE CHIROPRACTIC LLC	07/03/2019	07/03/2019	07/19/2019	FC	      	31080	19839
2072364	2019	P	I	L1	LR LIMO SERVICE	07/03/2019		07/19/2019	NN	      	30803	30803
2288831	2019	P	I	L1	INTELLIGENT MAILING SERVICES	07/03/2019		06/21/2019	WD	7070  	17206	17206
2167838	2019	P	I	L1	MIRO LLC	07/01/2019		07/19/2019	NN	9029  	11308	11308
2195603	2019	P	I	L1	NAZARIAN GLOBAL ENTERPRISES	07/01/2019		07/19/2019	NN	9029  	8821	8821
2006128	2019	P	I	L1	IHOP #1473	07/01/2019		07/19/2019	NN	9029  	5720	5720
0954163	2019	P	I	L1	I HOP #1420	07/01/2019		07/19/2019	NN	9029  	4689	4689
2006152	2019	P	I	L1	IHOP # 1431	07/01/2019		07/19/2019	NN	9029  	4689	4689
0864769	2019	P	I	L2	TRIPLE S STEEL SUPPLY LLC	06/14/2019	06/12/2019	06/14/2019	PC	      	4668316	2680301
0314180	2019	P	I	L2	CHEVRON PHILLIPS CHEMICAL COMPANY LP	06/13/2019	06/12/2019	06/14/2019	PT	      	60443574	60443574
2201925	2019	P	I	L2	CHEVRON PHILLIPS CHEMICAL	06/13/2019	06/12/2019	06/14/2019	PT	      	18615891	18615891
2201926	2019	P	I	L2	CHEVRON PHILLIPS CHEMICAL	06/13/2019	06/12/2019	06/14/2019	PT	      	1569108	1569108
2201927	2019	P	I	L2	CHEVRON PHILLIPS CHEMICAL	06/13/2019	06/12/2019	06/14/2019	PT	      	10250884	10250884
0767652	2019	P	I	L2	CHEVRON PHILLIPS CHEM CO	06/13/2019	06/12/2019	06/14/2019	PT	      	9868690	9868690
2200505	2019	P	I	L2	CHEVRON PHILLIPS CHEM CO LP	06/13/2019	06/12/2019	06/14/2019	PT	      	28940	28940
2225686	2019	P	I	L2	BAYER U.S. LLC	06/14/2019	06/13/2019	06/21/2019	PC	      	1745	465
0377015	2019	P	I	L2	ENERFLEX ENERGY SYSTEMS	06/14/2019	06/13/2019	06/14/2019	PC	      	158733120	158733120
0442021	2019	P	F	L2	ALCON LABORATORIES INC	07/01/2019	07/17/2019	07/19/2019	FC	9036  	131529154	125286940
2049781	2019	P	I	L2	DNOW LP	07/01/2019	07/01/2019	07/03/2019	IC	266   	46822939	43575654
2122986	2019	P	I	L2	BRASKEM AMERICA INC	07/01/2019		07/19/2019	NN	5014  	37097210	37097210
2139684	2019	P	I	L2	OZARKA	07/01/2019		07/19/2019	NN	62    	32770906	32770906
2025450	2019	P	F	L2	SEISMIC EQUIPMENT SOLUTIONS LP	07/01/2019	07/01/2019	07/03/2019	FC	231   	29693948	26786844
0386698	2019	P	I	L2	UNI FORM COMPONENTS CO	07/01/2019		07/03/2019	WD	215   	26793682	26793682
2024852	2019	P	I	L2	ALLIED ALLOYS LP	07/01/2019		07/03/2019	WD	6203  	24826254	24826254
2290602	2019	P	I	L2	FEDEX GROUND PACKAGE SYSTEM INC	07/01/2019		07/19/2019	NN	8062  	20693142	20693142
2012286	2019	P	F	L2	ALLIED POWER GROUP LLC	07/01/2019	07/01/2019	07/03/2019	FN	3236  	18828108	18828108
2247574	2019	P	F	L2	BAYVIEW REFINING COMPANY	07/01/2019	07/01/2019	07/03/2019	FN	5082  	18698833	18698833
2087869	2019	P	I	L2	CYRUSONE	07/01/2019	07/01/2019	08/02/2019	IN	231   	23313053	23313053
0912006	2019	P	I	L2	CYRUSONE	07/01/2019	07/01/2019	08/02/2019	IN	231   	11514533	11514533
2213587	2019	P	I	L2	CYRUSONE	07/01/2019	07/01/2019	08/02/2019	IN	231   	11472317	11472317
2240649	2019	P	I	L2	HEWLETT PACKARD ENTERPRISE CO	07/01/2019		07/19/2019	NN	62    	15368273	15368273
0898702	2019	P	I	L2	SERCEL INC	07/01/2019	07/01/2019	07/03/2019	IC	3123  	26391507	26339507
0898705	2019	P	I	L2	SERCEL INC	07/01/2019	07/01/2019	07/03/2019	IC	3123  	15754177	15718177
0901306	2019	P	I	L2	SERCEL INC	07/01/2019	07/01/2019	07/03/2019	IN	3123  	2915629	2915629
0005324	2019	P	F	L2	CONTROL FLOW INC	07/01/2019	07/01/2019	07/03/2019	FN	5082  	26272141	26272141
0060295	2019	P	F	L2	CURTIS STEEL COMPANY LLC	07/01/2019	07/01/2019	07/03/2019	FN	5082  	26159446	26159446
0011685	2019	P	F	L2	JET MACHINE WORKS INC	07/01/2019	07/01/2019	07/03/2019	FN	5082  	6130938	6130938
2305138	2019	P	F	L2	PARTNERS-IN-PRODUCTION LLC	07/01/2019	07/01/2019	07/03/2019	FN	5082  	1179487	1179487
0698135	2019	P	I	L2	LAWLER FOODS INC	07/01/2019	07/01/2019	07/03/2019	IC	3123  	13708463	13536971
0042355	2019	P	I	L2	AMERICAN PACKING & GASKET CO INC	07/01/2019		06/28/2019	WD	265   	13432724	13432724
0068682	2019	P	I	L2	TOOL FLO MANUFACTURERS INC	07/01/2019	07/01/2019	07/03/2019	IC	6047  	13007864	12001106
2196559	2019	P	F	L2	MERIT MEDICAL SYSTEMS	07/17/2019	07/17/2019	07/19/2019	FC	7094  	18148973	17932000
2004774	2019	P	I	L2	FURMANITE AMERICA INC	07/17/2019	07/17/2019	07/19/2019	IC	7094  	6858832	3228128
1040589	2019	P	I	L2	PETRO HUNT LLC	07/01/2019	07/01/2019	07/03/2019	IC	      	12424457	9900000
0646606	2019	P	F	L2	FABCORP INC	07/01/2019	07/01/2019	07/03/2019	FC	7004  	11566643	11000000
2123490	2019	P	I	L2	ATLAS AIR INC	07/10/2019		07/19/2019	PC	440   	11010306	9382777
1007236	2019	P	I	L2	T S UPSETTING & THREADING SERVICES LP	07/01/2019	07/01/2019	07/03/2019	IC	46311 	10977776	10080004
0748655	2019	P	I	L2	NOV TUBOSCOPE DIV	07/02/2019	06/24/2019	06/28/2019	PT	3068  	18863639	18863639
0793041	2019	P	I	L2	NOV TUBESCOPE	07/02/2019	06/24/2019	06/28/2019	PC	3068  	11920889	10982023
0716180	2019	P	I	L2	NOV TUBOSCOPE DIV	07/02/2019	06/24/2019	06/28/2019	PC	3068  	2084029	2034476
0328189	2019	P	F	L2	APPLETON ELECTRIC LLC	07/02/2019	08/01/2019	08/02/2019	FN	4059  	9631386	9631386
2140802	2019	P	F	L2	KANEKA NORTH AMERICA LLC	07/01/2019	07/01/2019	07/03/2019	FC	3090  	9029938	8126944
2196587	2019	P	I	L2	SPARTAN ENERGY PARTNERS LP	07/01/2019	06/21/2019	06/28/2019	PC	266   	8295384	1937723
1004147	2019	P	F	L2	PAINTED METAL PRODUCTS INC	07/25/2019	07/25/2019	08/02/2019	FC	3428  	8175631	7742322
0890035	2019	P	F	L2	ETHOSENERGY TURBINE SERVICES	07/02/2019	07/01/2019	07/19/2019	FN	3603  	12840321	12840321
2245076	2019	P	I	L2	CURFLO INC	07/02/2019	07/01/2019	07/03/2019	IC	3603  	2972657	2673943
2051044	2019	P	I	L2	REPSOL SERVICES COMPANY	07/01/2019		07/03/2019	WD	4059  	9193826	9193826
2080726	2019	P	I	L2	REPSOL E&P USA	07/01/2019		07/03/2019	WD	4059  	5799886	5799886
0893048	2019	P	I	L2	COIL TUBING TECHNOLOGY INC	07/15/2019	07/15/2019	07/19/2019	IC	      	132630	52174
2284975	2019	P	I	L2	SPECIALTY PIPE & TUBE, INC	07/01/2019	06/26/2019	06/28/2019	PC	      	14738634	12690052
0152576	2019	P	I	L2	FUTURE PIPE INDUSTRIES INC	07/01/2019		06/21/2019	WD	4064  	7279463	7279463
0474263	2019	P	I	L2	OTECO INC	06/21/2019	06/21/2019	08/02/2019	ON	3213  	6778400	6778400
0221092	2019	P	F	L2	ELLIOTT COMPANY	07/02/2019	07/02/2019	07/03/2019	FC	46311 	6720415	5987000
2197802	2019	P	F	L2	PPI MECHANICAL TESTING SERVICES LLC	07/22/2019	07/22/2019	08/02/2019	FC	7094  	6590827	5932000
2166252	2019	P	F	L2	FIELDWOOD ENERGY LLC	07/01/2019	07/01/2019	07/03/2019	FN	4064  	10928975	10928975
2306765	2019	P	F	L2	FIELDWOOD ENERGY LLC	07/01/2019	07/01/2019	07/03/2019	FN	4064  	8028308	8028308
2306762	2019	P	F	L2	FIELDWOOD ENERGY LLC	07/01/2019	07/01/2019	07/03/2019	FN	4064  	4994987	4994987
2306751	2019	P	F	L2	FIELDWOOD ENERGY LLC	07/01/2019	07/01/2019	07/03/2019	FN	4064  	1940162	1940162
2021931	2019	P	I	L2	CURTIS KELLY INC	07/02/2019		06/21/2019	WD	4064  	6280448	6280448
2010923	2019	P	I	L2	KINDER MORGAN PETCOKE, LP	07/18/2019		07/19/2019	IC	1981  	6220373	5874971
2010895	2019	P	I	L2	KINDER MORGAN PETCOKE LP	07/18/2019	07/18/2019	07/19/2019	IN	1981  	6037123	6037123
2195162	2019	P	I	L2	DNOW LP	07/01/2019	07/01/2019	07/03/2019	IC	266   	11995927	11156212
2175346	2019	P	I	L2	SPARTAN ENERGY PARTNERS LP	07/01/2019	06/21/2019	06/28/2019	PT	266   	237820	237820
2034464	2019	P	I	L2	FRANKLIN VALVE, LP	07/02/2019	07/02/2019	07/03/2019	IN	50821 	14183572	14183572
0336503	2019	P	I	L2	BURGESS SPECIALTY FABRICATING INC	07/02/2019	07/02/2019	07/03/2019	IN	50821 	2336318	2336318
0345080	2019	P	I	L2	MW INDUSTRIES INC	07/02/2019	07/02/2019	07/03/2019	IN	50821 	1010952	1010952
2219962	2019	P	F	L2	DOVER ENERGY INC	07/02/2019	07/09/2019	07/19/2019	FN	3603  	11348004	11348004
2267157	2019	P	I	L2	V-GAS LLC	07/02/2019	07/01/2019	07/03/2019	IC	3603  	293782	260871
0832511	2019	P	I	L2	JACINTOPORT INTL LP	07/02/2019		06/28/2019	WD	232   	5733483	5733483
0854463	2019	P	I	L2	REGAL METALS INC	07/01/2019		07/19/2019	NN	3484  	5665090	5665090
2295662	2019	P	I	L2	HEB GROCERY COMPANY LP	07/01/2019	07/12/2019	07/19/2019	IC	650   	5591747	5312159
2175178	2019	P	F	L2	PETROQUIP ENERGY SERVICES	07/22/2019	07/22/2019	08/02/2019	FC	7094  	5587538	4990000
0739591	2019	P	I	L2	FLUID SEALING PRODUCTS INC	07/01/2019		06/28/2019	WD	265   	10187773	10187773
0900485	2019	P	I	L2	TRAW MACHINE WORKS, LLC	07/01/2019		07/19/2019	NN	265   	701769	701769
0403359	2019	P	F	L2	IMERYS TALC	07/01/2019	07/01/2019	07/03/2019	FC	4059  	9736507	9100000
2238763	2019	P	I	L2	APPLIED MACHINERY CORPORATION	07/01/2019	07/01/2019	07/03/2019	IC	4059  	5271029	3518840
0958002	2019	P	F	L2	WISENBAKER BUILDER SERVICE REEVESTON RD FACILITY	07/01/2019	07/01/2019	07/03/2019	FN	4059  	652820	652820
0044415	2019	P	I	L2	ITD PRECISION INC	07/01/2019	07/01/2019	07/03/2019	IN	802   	5118563	5118563
2245964	2019	P	I	L2	TRISTAR GLASS, INC	07/10/2019	07/09/2019	07/12/2019	PC	4006  	5035553	4724990
0042837	2019	P	I	L2	OZARKA	07/01/2019		07/03/2019	WD	3212  	9744815	9744815
2240462	2019	P	I	L2	OZARKA	07/01/2019		07/03/2019	WD	3212  	243071	243071
0866320	2019	P	F	L2	INROCK MANUFACTURING	07/01/2019	07/01/2019	07/03/2019	FC	1000  	4969280	4320000
0020825	2019	P	I	L2	ENGINE WAREHOUSE INC	07/01/2019		07/03/2019	WD	4064  	4788601	4788601
0058999	2019	P	F	L2	CECO	07/02/2019	07/02/2019	07/03/2019	FC	481   	4678863	4478624
0361650	2019	P	I	L2	M-I SWACO	07/03/2019	07/02/2019	07/03/2019	PC	61    	12281359	10914366
0814901	2019	P	I	L2	CAMERON RESEARCH CENTER	07/03/2019	07/02/2019	07/03/2019	PT	61    	863521	863521
2269589	2019	P	I	L2	CAMERON SOLUTIONS INC	07/03/2019	07/02/2019	07/03/2019	PC	61    	701672	545860
2087882	2019	P	I	L2	AUTOMATION TECHNOLOGY INC	07/02/2019		06/28/2019	WD	265   	4523069	4523069
0057445	2019	P	I	L2	DRACO SPRING MFG CO INC	07/02/2019	06/24/2019	06/28/2019	PC	274   	4423960	4325421
2040636	2019	P	I	L2	MASON ROAD SHEET METAL INC	07/01/2019		07/03/2019	WD	4064  	4374592	4374592
0045146	2019	P	I	L2	BROCHSTEINS INC	07/01/2019	07/01/2019	07/03/2019	IC	51    	4303662	3982737
2274001	2019	P	F	L2	SUNBELT GROUP LP	07/01/2019	07/01/2019	07/03/2019	FC	481   	10631666	9568499
0797697	2019	P	F	L2	SUNBELT GROUP LP	07/01/2019	07/01/2019	07/03/2019	FC	481   	2107351	1896616
2097920	2019	P	F	L2	SUNBELT GROUP LP	07/01/2019	07/01/2019	07/03/2019	FC	481   	14295	12866
2117086	2019	P	I	L2	EQUINOR GULF OF MEXICO LLC (4006)	07/01/2019		07/19/2019	NN	5014  	7538279	7538279
2169408	2019	P	I	L2	WALTER OIL GAS CORP	07/01/2019		06/28/2019	WD	5014  	102800	102800
0335073	2019	P	I	L2	FRONTIER TUBULAR SOLUTIONS LLC	07/03/2019		06/21/2019	WD	4075  	3748490	3748490
0001228	2019	P	F	L2	GAGEMAKER LP	07/01/2019	07/01/2019	07/03/2019	FN	5082  	6772870	6772870
0168446	2019	P	F	L2	DEWEY W M & SON INC BIG BEND YARD	07/01/2019	07/01/2019	07/03/2019	FN	5082  	693832	693832
2291659	2019	P	I	L2	TPRI- POLYPROPYLENE (PC10100)	07/01/2019	06/28/2019	07/03/2019	PC	5014  	6470562	5392135
0925894	2019	P	I	L2	WALTER OIL & GAS CORP	07/01/2019		06/28/2019	WD	5014  	542585	542585
2052474	2019	P	I	L2	PACKWELL	07/03/2019	07/03/2019	07/12/2019	IN	3449  	3464667	3464667
0891801	2019	P	I	L2	HARSCO MINERALS INTERNATIONAL	07/01/2019		07/19/2019	WD	4059  	3457702	3457702
0770532	2019	P	I	L2	TAYLOR OILFIELD MANUFACTURING INC	07/03/2019	07/02/2019	07/03/2019	IN	6046  	3285627	3285627
2009143	2019	P	I	L2	LIFTMOORE INC	07/03/2019	06/18/2019	06/21/2019	PC	233   	3194829	3194507
2041360	2019	P	F	L2	WHITCO SUPPLY	07/01/2019	07/01/2019	07/03/2019	FN	50821 	7575923	7575923
0556091	2019	P	F	L2	ARC SPECIALTIES INC	07/01/2019	07/01/2019	07/03/2019	FC	50821 	2344876	1849981
0266973	2019	P	I	L2	DAILY THERMETRICS CORP	07/01/2019	07/01/2019	07/03/2019	IN	50821 	1436114	1436114
0117990	2019	P	I	L2	STRONG INDUSTRIES INC	07/01/2019	07/01/2019	07/03/2019	IN	50821 	51810	51810
0288493	2019	P	I	L2	DRILLTEC TECHNOLOGIES LP	07/02/2019	07/02/2019	07/03/2019	IN	50821 	4693426	4693426
2236188	2019	P	I	L2	PETROMAX REFINING COMPANY LLC	07/02/2019	07/02/2019	07/03/2019	IN	50821 	804260	804260
2267121	2019	P	I	L2	PETROMAX	07/01/2019	07/01/2019	07/03/2019	IN	5082  	2682712	2682712
0044100	2019	P	I	L2	CAL-TEX CITRUS JUICE LP	07/17/2019	07/17/2019	07/19/2019	IC	      	2557680	2236200
0021252	2019	P	F	L2	CORE LABORATORIES	07/02/2019		07/03/2019	WD	3068  	11900333	11900333
0955454	2019	P	I	L2	CLEAN HARBORS INDUSTRIAL SERVICES INC	07/02/2019		07/03/2019	WD	3068  	1668389	1668389
0548087	2019	P	I	L2	STOLT TANKERS USA INC - US GULF BARGING	07/02/2019		06/21/2019	WD	3068  	1272165	1272165
0900240	2019	P	I	L2	CLEAN HARBORS ENVIRONMENTAL	07/02/2019		07/03/2019	WD	3068  	1235306	1235306
0055817	2019	P	I	L2	SOUTH COAST TERMINALS	07/02/2019		06/21/2019	WD	3068  	824018	824018
2207591	2019	P	I	L2	STOLT TANK CONTAINERS	07/02/2019		06/28/2019	WD	3068  	759960	759960
2289196	2019	P	I	L2	NATIONAL OILWELL VARCO LP (L130)	07/02/2019		07/03/2019	WD	3068  	143183	143183
0956243	2019	P	I	L2	OFFSHORE MARINE CABLE SPECIALIST	07/02/2019		07/12/2019	WD	3434  	2486437	2486437
0011920	2019	P	I	L2	LOWRANCE MACHINE SHOP INC	07/03/2019	06/17/2019	06/21/2019	PT	4017  	2883080	2883080
0052868	2019	P	I	L2	H & M PLATING CO INC	07/03/2019	06/17/2019	06/21/2019	PT	4017  	1976359	1976359
2200106	2019	P	I	L2	HOLLYFRONTIER REFINING & MARKETING LLC	07/01/2019		06/28/2019	WD	3068  	4245793	4245793
2275302	2019	P	I	L2	OCI BEAUMONT	06/27/2019	06/27/2019	08/09/2019	ON	3068  	498647	498647
2048397	2019	P	I	L2	ED & F MAN LIQUID PRODUCTS	07/01/2019		06/21/2019	WD	4064  	2312444	2312444
0803407	2019	P	I	L2	KING FABRICATION	07/01/2019	07/01/2019	07/03/2019	PC	3213  	4323335	2985528
2121549	2019	P	I	L2	THE TARP DEPOT INC	07/01/2019		07/03/2019	WD	3213  	134537	134537
0254793	2019	P	I	L2	PASADENA SKID & PALLET INC	07/01/2019		06/28/2019	WD	842   	2218608	2218608
2244771	2019	P	I	L2	GLOBAL TUBING	07/01/2019		07/03/2019	WD	6046  	2174028	2174028
0910814	2019	P	I	L2	D-L FLANGE	07/02/2019		06/28/2019	WD	3030  	6326631	6326631
2066355	2019	P	I	L2	GLOBAL ORINGS AND SEALS, INC.	07/02/2019		06/28/2019	WD	3030  	2530286	2530286
0020677	2019	P	I	L2	D&S MACHINE WORKS,INC.	07/02/2019	07/02/2019	07/03/2019	IN	3030  	1676750	1676750
0263518	2019	P	F	L2	MASTER MACHINE INC	07/02/2019	07/02/2019	07/03/2019	FN	3030  	1135747	1135747
0648588	2019	P	I	L2	COASTAL MECHANICS TOOL AND MACHINE	07/02/2019	07/02/2019	07/03/2019	IN	3030  	614117	614117
0627419	2019	P	I	L2	HIGHTOWER METAL WORKS INC	07/02/2019	07/02/2019	07/03/2019	IN	3030  	199200	199200
2073705	2019	P	I	L2	TPC GROUP INC (TEXAS PETROCHEMICAL)	07/01/2019		06/21/2019	WD	278   	2047783	2047783
0635164	2019	P	I	L2	NELSON MACHINE PRODUCTS	07/01/2019		07/19/2019	NN	      	1763440	1763440
2240458	2019	P	I	L2	FABCO LLC	06/19/2019	06/19/2019	08/02/2019	ON	122   	1755224	1755224
0828258	2019	P	F	L2	HOUSTON SHUTTERS	07/01/2019	07/01/2019	07/03/2019	FN	5082  	3304292	3304292
0061505	2019	P	F	L2	THERMOPLASTIC FABRICATION	07/01/2019	07/01/2019	07/03/2019	FN	5082  	19951	19951
2038771	2019	P	I	L2	JACKRABBIT STEEL PRODUCTS INC	07/01/2019		06/21/2019	WD	5097  	1591057	1591057
2149787	2019	P	I	L2	HOUSTON PIPE BENDERS LLC	07/03/2019		07/19/2019	NN	7082  	1562392	1562392
0600052	2019	P	I	L2	MACH CORP	07/03/2019	07/03/2019	07/12/2019	IC	4088  	1475179	1190179
2074914	2019	P	F	L2	ALLERGAN SALES LLC FKA: SKINMEDICA INC	07/01/2019	07/01/2019	07/03/2019	FC	3434  	1435014	1302857
0052736	2019	P	I	L2	B-W GRINDING SERVICE INC	06/20/2019	06/20/2019	08/02/2019	ON	161   	2635146	2635146
0181914	2019	P	I	L2	MARINE URETHANE INC	06/20/2019	06/20/2019	08/23/2019	ON	161   	109985	109985
0439700	2019	P	I	L2	TICONA LLC	07/01/2019		06/28/2019	WD	3068  	9674048	9674048
1009968	2019	P	I	L2	CLEAN HARBORS	07/01/2019		07/19/2019	NN	3068  	658032	658032
2289690	2019	P	I	L2	GREEN SPAN PROFILES LP	07/01/2019		06/21/2019	WD	3068  	178838	178838
2253645	2019	P	I	L2	CARAUSTAR IPG	06/27/2019	06/27/2019	08/02/2019	ON	3068  	21965	21965
2290787	2019	P	I	L2	PEROXYCHEM	07/01/2019		06/28/2019	WD	3068  	20839	20839
2136174	2019	P	I	L2	TMK IPSCO	07/01/2019		07/19/2019	NN	3068  	18000	18000
2202264	2019	P	I	L2	TBC - BRINADD	07/01/2019		06/21/2019	WD	3068  	16457	16457
2048507	2019	P	I	L2	JV INDUSTRIAL COMPAINES LTD	07/01/2019		07/19/2019	NN	3068  	5013	5013
0854431	2019	P	I	L2	SOUTHERN METALS COMPANY N DALLAS BANK TOWER	07/01/2019	07/01/2019	07/03/2019	IC	46311 	1178549	1095121
2218765	2019	P	I	L2	OXEA CORPORATION	07/02/2019		06/28/2019	WD	3068  	1721967	1721967
2221668	2019	P	I	L2	CELANESE CORPORATION	07/02/2019		06/28/2019	WD	3068  	1635390	1635390
2005721	2019	P	I	L2	CELANESE, LTD	07/02/2019		06/28/2019	WD	3068  	44243	44243
2202661	2019	P	I	L2	CNOOC ENERGY USA LLC	07/01/2019	07/01/2019	07/03/2019	IC	      	1123168	180862
0643036	2019	P	I	L2	CENTRAL ADMIXTURE PHARMACY SERVICE INC	07/22/2019	07/22/2019	07/26/2019	PC	      	1100102	665699
2198498	2019	P	F	L2	MACSTEEL INTERNATIONAL USA CORP	07/01/2019	07/01/2019	07/03/2019	FN	481   	1082951	1082951
2237914	2019	P	I	L2	RUSSIAN FERRO ALLOYS	07/02/2019		06/28/2019	WD	3030  	2127170	2127170
2228050	2019	P	I	L2	PACIFIC LTD CORP	07/02/2019		06/28/2019	WD	3030  	16277	16277
2219399	2019	P	F	L2	TIANJIN MACHINERY & ELECTRIC EQPT IMP & EXP CO LTD	07/01/2019	07/01/2019	07/03/2019	FN	50821 	1041753	1041753
0435264	2019	P	I	L2	STOLTHAVEN HOUSTON INC	07/02/2019		07/03/2019	WD	3068  	1132389	1132389
0578185	2019	P	I	L2	STOLT-NIELSEN USA, INC	07/02/2019		07/03/2019	WD	3068  	816368	816368
2151099	2019	P	F	L2	SERAMPORE INDUSTRIES	07/02/2019	07/02/2019	07/03/2019	FN	46311 	4039293	4039293
0007305	2019	P	I	L2	ROC CARBON COMPANY	07/02/2019		07/03/2019	WD	46311 	588459	809413
1062879	2019	P	I	L2	TIMCO MACHINE	07/02/2019		07/03/2019	WD	46311 	131676	131676
2035126	2019	P	I	L2	WORLD FAB INC	07/02/2019		07/03/2019	WD	46311 	44681	44681
0771984	2019	P	I	L2	DRILLERS MACHINE CO	07/02/2019		07/03/2019	WD	46311 	3315	3315
2275870	2019	P	F	L2	ETHOS ENERGY POWER SOLUTIONS LLC	07/01/2019	07/01/2019	07/03/2019	FC	3603  	918000	448375
0890037	2019	P	I	L2	DRAKE PLASTICS LTD CO	07/01/2019	07/01/2019	07/03/2019	IN	9070  	1413605	1413605
0339281	2019	P	I	L2	CHEMSYSTEMS INC	07/01/2019	07/01/2019	07/03/2019	IN	9070  	357791	357791
0712508	2019	P	F	L2	LEWIS FOOD TOWN	07/01/2019	07/16/2019	07/19/2019	FN	7082  	882831	882831
0601779	2019	P	I	L2	NOAH'S MANUFACTURING INC	07/01/2019		07/19/2019	NN	3189  	880667	880667
2078535	2019	P	I	L2	CHEVRON PHILLIPS CHEMICAL CO LP	07/10/2019		06/28/2019	PC	      	830652	351556
2304086	2019	P	I	L2	NATIONAL TUBE SUPPLY CO	07/01/2019		06/28/2019	WD	3127  	825021	825021
2275372	2019	P	I	L2	GLOBAL FABRICATION SERVICES	07/03/2019		06/21/2019	WD	5097  	788679	788679
2009077	2019	P	I	L2	SEFTON STEEL LP	06/21/2019	06/21/2019	08/02/2019	ON	3213  	1332030	1332030
0754743	2019	P	I	L2	HOUSTON VALUE TESTING INC	06/21/2019	06/21/2019	08/02/2019	ON	3213  	159341	159341
2196936	2019	P	I	L2	OILTANKING HOUSTON LP	07/02/2019		07/03/2019	WD	3259  	741426	741426
0885299	2019	P	I	L2	AAA FLAME CUT STEEL INC	07/02/2019	07/02/2019	07/03/2019	IC	3030  	731322	640148
2070710	2019	P	I	L2	FLIGHTAWARE	07/01/2019	07/01/2019	07/03/2019	IC	218   	2041101	935720
2174564	2019	P	I	L2	TRAVIS SOFTWARE INC	07/01/2019	07/01/2019	07/03/2019	IC	218   	48569	21777
2174565	2019	P	I	L2	TRAVIS SOFTWARE INC	07/01/2019	07/01/2019	07/03/2019	IC	218   	46819	27176
2286280	2019	P	I	L2	TOR MINERALS	07/01/2019		06/28/2019	WD	265   	706943	706943
2268536	2019	P	F	L2	KEY TIERRA LLC	07/01/2019	07/01/2019	07/03/2019	FN	50821 	1351978	1351978
2009297	2019	P	F	L2	MITSUBISHI CATERPILLAR	07/01/2019	07/01/2019	07/03/2019	FC	50821 	7500	5000
2064738	2019	P	I	L2	SBA MONARCH TOWERS III LLC	07/02/2019	06/28/2019	07/03/2019	PC	4061  	3459771	3390576
2173306	2019	P	I	L2	SBA 2012 TC ASSETS LLC	07/02/2019	06/28/2019	07/03/2019	PC	4061  	1916815	1878479
2101748	2019	P	I	L2	SBA TOWERS IV LLC	07/02/2019	06/28/2019	07/03/2019	PC	4061  	981092	961470
2173304	2019	P	I	L2	SBA MONARCH TOWERS I LLC	07/02/2019	06/28/2019	07/03/2019	PC	4061  	976252	956727
2032797	2019	P	I	L2	SBA STRUCTURES INC	07/02/2019	06/28/2019	07/03/2019	PC	4061  	436422	427694
2264435	2019	P	I	L2	SBA TOWERS IX LLC	07/02/2019	06/28/2019	07/03/2019	PC	4061  	376416	368888
2227957	2019	P	I	L2	SBA STEEL II LLC	07/02/2019	06/28/2019	07/03/2019	PC	4061  	169021	165641
2203144	2019	P	I	L2	SBA TOWERS V LLC	07/02/2019	06/28/2019	07/03/2019	PC	4061  	98300	96334
2227878	2019	P	I	L2	SBA GC TOWERS LLC	07/02/2019	06/28/2019	07/03/2019	PC	4061  	80954	79334
2227964	2019	P	I	L2	SBA STEEL LLC	07/02/2019	06/28/2019	07/03/2019	PC	4061  	70720	69306
2101187	2019	P	I	L2	SBA TOWERS II LLC	07/02/2019	06/28/2019	07/03/2019	PC	4061  	68297	66931
2007510	2019	P	I	L2	SBA TOWERS INC	07/02/2019	06/28/2019	07/03/2019	PC	4061  	54123	53041
2170992	2019	P	I	L2	SBA TOWERS III LLC	07/02/2019	06/28/2019	07/03/2019	PC	4061  	40199	39395
2073663	2019	P	I	L2	SELENE FINANCE LP	07/01/2019	07/01/2019	07/03/2019	IC	      	665754	280163
2250226	2019	P	I	L2	ARC SPECIALTIES INC	07/02/2019	07/02/2019	07/03/2019	IN	5082  	1230571	1230571
2043759	2019	P	I	L2	BIG K ENVIRONMENTAL	07/02/2019	07/02/2019	07/03/2019	IN	5082  	19963	19963
2007952	2019	P	I	L2	KXLN-TV	07/01/2019	07/01/2019	07/03/2019	IC	3603  	2746000	1817381
0900745	2019	P	I	L2	UNIVISION RADIO STATIONS GROUP INC	07/01/2019	07/01/2019	07/03/2019	IC	3603  	534080	381704
0900730	2019	P	I	L2	UNIVISION RADIO BROADCASTING TEXAS LP	07/01/2019	07/01/2019	07/03/2019	IN	3603  	150889	150889
0900728	2019	P	I	L2	UNIVISION RADIO BROADCASTING TEXAS LP	07/01/2019	07/01/2019	07/03/2019	IN	3603  	136599	136599
2058040	2019	P	I	L2	UNIVISION RADIO BROADCASTING	07/01/2019	07/01/2019	07/03/2019	IC	3603  	113516	58203
2007956	2019	P	I	L2	KXLN-TV	07/01/2019	07/01/2019	07/03/2019	IC	3603  	42467	26518
0989404	2019	P	I	L2	TURBO MACHINE TECHNOLOGY INC	07/02/2019	07/02/2019	07/03/2019	IC	46311 	593984	543984
2143354	2019	P	I	L2	ENTEC POLYMERS LLC	07/02/2019		07/12/2019	WD	41    	587874	587874
2217390	2019	P	I	L2	CTK MANUFACTURING LLC	07/02/2019	07/02/2019	07/03/2019	IC	9072  	545476	503245
0250690	2019	P	F	L2	QUALITY PRECISION MACHINE WORKS INC	07/01/2019	07/01/2019	07/03/2019	FN	2395  	517544	517544
2091662	2019	P	I	L2	TEXAS GAS TRANSMISSION	07/01/2019		07/19/2019	NN	      	503376	503376
2245620	2019	P	I	L2	ENTEC POLYMERS	07/01/2019		07/12/2019	WD	41    	1100279	1100279
